MODULE Linux x86_64 0FF2908283A094CB5D963FFD52B8B04E0 segv_test
INFO CODE_ID 8290F20FA083CB945D963FFD52B8B04E4A35192E
FUNC 1f40 4a 0 google_breakpad::PageAllocator::FreeAll()
FUNC 1f8a 20 0 google_breakpad::ProcCpuInfoReader::GetValueAndLen(unsigned long*)
FUNC 1faa 20 0 google_breakpad::TypedMDRVA<MDRawDirectory>::CopyIndex(unsigned int, MDRawDirectory*)
FUNC 1fca 1d 0 google_breakpad::TypedMDRVA<MDRawDirectory>::CopyIndex(unsigned int, MDRawDirectory*)
FUNC 1fe8 20 0 google_breakpad::TypedMDRVA<unsigned int>::CopyIndexAfterObject(unsigned int, void const*, unsigned long)
FUNC 2008 20 0 MinidumpWriter::MinidumpWriter
FUNC 2028 2c 0 MinidumpWriter::~MinidumpWriter
FUNC 2054 1ec 0 MinidumpWriter::WriteFile
FUNC 2240 67 0 MinidumpWriter::WriteProcFile
FUNC 23a6 17 0 dumpCallback
FUNC 23bd 24b 0 main
FUNC 2608 3e 0 __static_initialization_and_destruction_0
FUNC 2646 15 0 _GLOBAL__sub_I_main
FUNC 265c 3a 0 google_breakpad::MicrodumpExtraInfo::MicrodumpExtraInfo()
FUNC 2696 bc 0 google_breakpad::MinidumpDescriptor::MinidumpDescriptor(std::__cxx11::basic_string<char, std::char_traits<char>, std::allocator<char> > const&)
FUNC 2752 2f 0 google_breakpad::MinidumpDescriptor::~MinidumpDescriptor()
FUNC 2790 14b 0 google_breakpad::ExceptionHandler::InstallHandlersLocked()
FUNC 28e0 7c 0 google_breakpad::ExceptionHandler::RestoreHandlersLocked()
FUNC 2960 341 0 google_breakpad::ExceptionHandler::~ExceptionHandler()
FUNC 2cb0 d1 0 google_breakpad::ExceptionHandler::SendContinueSignalToChild()
FUNC 2d90 4c4 0 google_breakpad::ExceptionHandler::GenerateDump(google_breakpad::ExceptionHandler::CrashContext*)
FUNC 3260 1da 0 google_breakpad::ExceptionHandler::HandleSignal(int, siginfo_t*, void*)
FUNC 3440 1ef 0 google_breakpad::ExceptionHandler::SignalHandler(int, siginfo_t*, void*)
FUNC 3630 7f 0 google_breakpad::ExceptionHandler::SimulateSignalDelivery(int)
FUNC 36b0 e5 0 google_breakpad::ExceptionHandler::WaitForContinueSignal()
FUNC 37a0 ac 0 google_breakpad::ExceptionHandler::DoDump(int, void const*, unsigned long)
FUNC 3850 82 0 google_breakpad::ExceptionHandler::ThreadEntry(void*)
FUNC 38e0 195 0 google_breakpad::ExceptionHandler::WriteMinidump()
FUNC 3a80 e3 0 google_breakpad::ExceptionHandler::AddMappingInfo(std::__cxx11::basic_string<char, std::char_traits<char>, std::allocator<char> > const&, unsigned char const*, unsigned long, unsigned long, unsigned long)
FUNC 3b70 91 0 google_breakpad::ExceptionHandler::RegisterAppMemory(void*, unsigned long)
FUNC 3c10 52 0 google_breakpad::ExceptionHandler::UnregisterAppMemory(void*)
FUNC 3c70 25d 0 google_breakpad::ExceptionHandler::WriteMinidumpForChild(int, int, std::__cxx11::basic_string<char, std::char_traits<char>, std::allocator<char> > const&, bool (*)(google_breakpad::MinidumpDescriptor const&, void*, bool), void*)
FUNC 3ed0 8 0 google_breakpad::SetFirstChanceExceptionHandler(bool (*)(int, void*, void*))
FUNC 3ee0 3a6 0 google_breakpad::ExceptionHandler::ExceptionHandler(google_breakpad::MinidumpDescriptor const&, bool (*)(void*), bool (*)(google_breakpad::MinidumpDescriptor const&, void*, bool), void*, bool, int)
FUNC 4290 295 0 google_breakpad::ExceptionHandler::WriteMinidump(std::__cxx11::basic_string<char, std::char_traits<char>, std::allocator<char> > const&, bool (*)(google_breakpad::MinidumpDescriptor const&, void*, bool), void*)
FUNC 4530 ea 0 void std::vector<google_breakpad::ExceptionHandler*, std::allocator<google_breakpad::ExceptionHandler*> >::_M_emplace_back_aux<google_breakpad::ExceptionHandler*>(google_breakpad::ExceptionHandler*&&)
FUNC 4620 c2 0 void std::__cxx11::basic_string<char, std::char_traits<char>, std::allocator<char> >::_M_construct<char*>(char*, char*, std::forward_iterator_tag)
FUNC 46f0 c0 0 google_breakpad::MinidumpDescriptor::MinidumpDescriptor(google_breakpad::MinidumpDescriptor const&)
FUNC 47b0 317 0 google_breakpad::MinidumpDescriptor::UpdatePath()
FUNC 4ad0 c2 0 google_breakpad::MinidumpDescriptor::operator=(google_breakpad::MinidumpDescriptor const&)
FUNC 4ba0 33 0 logger::write(char const*, unsigned long)
FUNC 4be0 1d2b 0 google_breakpad::WriteMicrodump(int, void const*, unsigned long, std::__cxx11::list<google_breakpad::MappingEntry, std::allocator<google_breakpad::MappingEntry> > const&, bool, unsigned long, bool, google_breakpad::MicrodumpExtraInfo const&)
FUNC 6910 3ea 0 void std::vector<unsigned char, google_breakpad::PageStdAllocator<unsigned char> >::_M_range_insert<unsigned char const*>(__gnu_cxx::__normal_iterator<unsigned char*, std::vector<unsigned char, google_breakpad::PageStdAllocator<unsigned char> > >, unsigned char const*, unsigned char const*, std::forward_iterator_tag)
FUNC 6d00 6 0 google_breakpad::LinuxDumper::LateInit()
FUNC 6d10 8b2 0 google_breakpad::LinuxDumper::EnumerateMappings()
FUNC 75d0 845 0 google_breakpad::LinuxDumper::LinuxDumper(int, char const*)
FUNC 7e20 67 0 google_breakpad::LinuxDumper::~LinuxDumper()
FUNC 7e90 12 0 google_breakpad::LinuxDumper::~LinuxDumper()
FUNC 7eb0 14 0 google_breakpad::LinuxDumper::SetCrashInfoFromSigInfo(siginfo_t const&)
FUNC 7ed0 1f8 0 google_breakpad::LinuxDumper::GetCrashSignalString() const
FUNC 80d0 4a 0 google_breakpad::LinuxDumper::GetMappingAbsolutePath(google_breakpad::MappingInfo const&, char*) const
FUNC 8120 18b 0 ElfFileSoName
FUNC 82b0 1a7 0 google_breakpad::LinuxDumper::HandleDeletedFileInMapping(char*) const
FUNC 8460 e6 0 google_breakpad::LinuxDumper::GetMappingEffectiveNameAndPath(google_breakpad::MappingInfo const&, char*, unsigned long, char*, unsigned long)
FUNC 8550 119 0 google_breakpad::LinuxDumper::ReadAuxv()
FUNC 8670 32 0 google_breakpad::LinuxDumper::Init()
FUNC 86b0 68 0 google_breakpad::LinuxDumper::StackHasPointerToMapping(unsigned char const*, unsigned long, unsigned long, google_breakpad::MappingInfo const&)
FUNC 8720 4b 0 google_breakpad::LinuxDumper::FindMapping(void const*) const
FUNC 8770 7d 0 google_breakpad::LinuxDumper::GetStackInfo(void const**, unsigned long*, unsigned long)
FUNC 87f0 43 0 google_breakpad::LinuxDumper::FindMappingNoBias(unsigned long) const
FUNC 8840 1fc 0 google_breakpad::LinuxDumper::SanitizeStackCopy(unsigned char*, unsigned long, unsigned long, unsigned long)
FUNC 8a40 53 0 google_breakpad::LinuxDumper::HandleDeletedFileInMapping(char*) const
FUNC 8aa0 34b 0 google_breakpad::LinuxDumper::ElfFileIdentifierForMapping(google_breakpad::MappingInfo const&, bool, unsigned int, google_breakpad::wasteful_vector<unsigned char>&)
FUNC 8df0 143 0 google_breakpad::PageAllocator::Alloc(unsigned long)
FUNC 8f40 3 0 google_breakpad::LinuxPtraceDumper::IsPostMortem() const
FUNC 8f50 187 0 google_breakpad::LinuxPtraceDumper::CopyFromProcess(void*, int, void const*, unsigned long)
FUNC 90e0 bb 0 google_breakpad::LinuxPtraceDumper::BuildProcPath(char*, int, char const*) const
FUNC 91a0 bc 0 google_breakpad::LinuxPtraceDumper::ThreadsResume()
FUNC 9260 605 0 google_breakpad::LinuxPtraceDumper::EnumerateThreads()
FUNC 9870 27 0 google_breakpad::LinuxPtraceDumper::LinuxPtraceDumper(int)
FUNC 98a0 e3 0 google_breakpad::LinuxPtraceDumper::ReadRegisterSet(google_breakpad::ThreadInfo*, int)
FUNC 9990 d1 0 google_breakpad::LinuxPtraceDumper::ReadRegisters(google_breakpad::ThreadInfo*, int)
FUNC 9a70 4d1 0 google_breakpad::LinuxPtraceDumper::GetThreadInfoByIndex(unsigned long, google_breakpad::ThreadInfo*)
FUNC 9f50 251 0 google_breakpad::LinuxPtraceDumper::ThreadsSuspend()
FUNC a1b0 13 0 google_breakpad::LinuxPtraceDumper::~LinuxPtraceDumper()
FUNC a1d0 20 0 google_breakpad::LinuxPtraceDumper::~LinuxPtraceDumper()
FUNC a1f0 288 0 std::vector<int, google_breakpad::PageStdAllocator<int> >::_M_default_append(unsigned long)
FUNC a480 ee3 0 MinidumpWriter::WriteThreadListStream
FUNC b370 21e2 0 MinidumpWriter::Dump
FUNC d560 566 0 google_breakpad::WriteMinidump(char const*, std::__cxx11::list<google_breakpad::MappingEntry, std::allocator<google_breakpad::MappingEntry> > const&, std::__cxx11::list<google_breakpad::AppMemory, std::allocator<google_breakpad::AppMemory> > const&, google_breakpad::LinuxDumper*)
FUNC dad0 6ba 0 google_breakpad::WriteMinidump(char const*, int, int)
FUNC e190 56b 0 WriteMinidumpImpl
FUNC e700 119 0 google_breakpad::WriteMinidump(char const*, int, void const*, unsigned long, bool, unsigned long, bool)
FUNC e820 119 0 google_breakpad::WriteMinidump(int, int, void const*, unsigned long, bool, unsigned long, bool)
FUNC e940 36 0 google_breakpad::WriteMinidump(char const*, int, void const*, unsigned long, std::__cxx11::list<google_breakpad::MappingEntry, std::allocator<google_breakpad::MappingEntry> > const&, std::__cxx11::list<google_breakpad::AppMemory, std::allocator<google_breakpad::AppMemory> > const&, bool, unsigned long, bool)
FUNC e980 35 0 google_breakpad::WriteMinidump(int, int, void const*, unsigned long, std::__cxx11::list<google_breakpad::MappingEntry, std::allocator<google_breakpad::MappingEntry> > const&, std::__cxx11::list<google_breakpad::AppMemory, std::allocator<google_breakpad::AppMemory> > const&, bool, unsigned long, bool)
FUNC e9c0 34 0 google_breakpad::WriteMinidump(char const*, long, int, void const*, unsigned long, std::__cxx11::list<google_breakpad::MappingEntry, std::allocator<google_breakpad::MappingEntry> > const&, std::__cxx11::list<google_breakpad::AppMemory, std::allocator<google_breakpad::AppMemory> > const&, bool, unsigned long, bool)
FUNC ea00 33 0 google_breakpad::WriteMinidump(int, long, int, void const*, unsigned long, std::__cxx11::list<google_breakpad::MappingEntry, std::allocator<google_breakpad::MappingEntry> > const&, std::__cxx11::list<google_breakpad::AppMemory, std::allocator<google_breakpad::AppMemory> > const&, bool, unsigned long, bool)
FUNC ea40 259 0 google_breakpad::ProcCpuInfoReader::GetNextField(char const**)
FUNC eca0 257 0 std::vector<char, google_breakpad::PageStdAllocator<char> >::resize(unsigned long)
FUNC ef00 250 0 void std::vector<MDMemoryDescriptor, google_breakpad::PageStdAllocator<MDMemoryDescriptor> >::_M_emplace_back_aux<MDMemoryDescriptor const&>(MDMemoryDescriptor const&)
FUNC f150 23 0 google_breakpad::TypedMDRVA<MDString>::CopyIndexAfterObject(unsigned int, void const*, unsigned long)
FUNC f180 1a 0 google_breakpad::MinidumpFileWriter::MinidumpFileWriter()
FUNC f1a0 78 0 google_breakpad::MinidumpFileWriter::Open(char const*)
FUNC f220 2c 0 google_breakpad::MinidumpFileWriter::SetFile(int)
FUNC f250 5d 0 google_breakpad::MinidumpFileWriter::Close()
FUNC f2b0 15 0 google_breakpad::MinidumpFileWriter::~MinidumpFileWriter()
FUNC f2d0 b6 0 google_breakpad::MinidumpFileWriter::Allocate(unsigned long)
FUNC f390 ff 0 google_breakpad::MinidumpFileWriter::Copy(unsigned int, void const*, long)
FUNC f490 f0 0 google_breakpad::MinidumpFileWriter::CopyStringToMDString(wchar_t const*, unsigned int, google_breakpad::TypedMDRVA<MDString>*)
FUNC f580 ef 0 google_breakpad::MinidumpFileWriter::CopyStringToMDString(char const*, unsigned int, google_breakpad::TypedMDRVA<MDString>*)
FUNC f670 41 0 google_breakpad::UntypedMDRVA::Allocate(unsigned long)
FUNC f6c0 89 0 google_breakpad::UntypedMDRVA::Copy(unsigned int, void const*, unsigned long)
FUNC f750 df 0 google_breakpad::MinidumpFileWriter::WriteMemory(void const*, unsigned long, MDMemoryDescriptor*)
FUNC f830 5 0 google_breakpad::MinidumpFileWriter::WriteString(wchar_t const*, unsigned int, MDLocationDescriptor*)
FUNC f840 5 0 google_breakpad::MinidumpFileWriter::WriteString(char const*, unsigned int, MDLocationDescriptor*)
FUNC f850 23a 0 bool google_breakpad::MinidumpFileWriter::WriteStringCore<wchar_t>(wchar_t const*, unsigned int, MDLocationDescriptor*)
FUNC fa90 23a 0 bool google_breakpad::MinidumpFileWriter::WriteStringCore<char>(char const*, unsigned int, MDLocationDescriptor*)
FUNC fcd0 c2 0 void std::__cxx11::basic_string<char, std::char_traits<char>, std::allocator<char> >::_M_construct<char const*>(char const*, char const*, std::forward_iterator_tag)
FUNC fda0 b1 0 google_breakpad::UTF8ToUTF16Char(char const*, int, unsigned short*)
FUNC fe60 7b 0 google_breakpad::UTF32ToUTF16Char(wchar_t, unsigned short*)
FUNC fee0 173 0 google_breakpad::UTF16ToUTF8[abi:cxx11](std::vector<unsigned short, std::allocator<unsigned short> > const&, bool)
FUNC 10060 f0 0 google_breakpad::UTF32ToUTF16(wchar_t const*, std::vector<unsigned short, std::allocator<unsigned short> >*)
FUNC 10150 e8 0 google_breakpad::UTF8ToUTF16(char const*, std::vector<unsigned short, std::allocator<unsigned short> >*)
FUNC 10240 2bd 0 std::vector<unsigned short, std::allocator<unsigned short> >::_M_fill_insert(__gnu_cxx::__normal_iterator<unsigned short*, std::vector<unsigned short, std::allocator<unsigned short> > >, unsigned long, unsigned short const&)
FUNC 10500 14d 0 std::vector<unsigned short, std::allocator<unsigned short> >::_M_default_append(unsigned long)
FUNC 10650 1f 0 google_breakpad::IsValidElf(void const*)
FUNC 10670 5 0 google_breakpad::ElfClass(void const*)
FUNC 10680 461 0 google_breakpad::FindElfSection(void const*, char const*, unsigned int, void const**, unsigned long*)
FUNC 10af0 2d7 0 google_breakpad::FindElfSegments(void const*, unsigned int, google_breakpad::wasteful_vector<google_breakpad::ElfSegment>*)
FUNC 10dd0 250 0 void std::vector<google_breakpad::ElfSegment, google_breakpad::PageStdAllocator<google_breakpad::ElfSegment> >::_M_emplace_back_aux<google_breakpad::ElfSegment const&>(google_breakpad::ElfSegment const&)
FUNC 11020 135 0 google_breakpad::bytes_to_hex_string
FUNC 11160 e2 0 google_breakpad::FileID::FileID(char const*)
FUNC 11250 c7 0 google_breakpad::FileID::ConvertIdentifierToUUIDString[abi:cxx11](google_breakpad::wasteful_vector<unsigned char> const&)
FUNC 11320 49 0 google_breakpad::FileID::ConvertIdentifierToString[abi:cxx11](google_breakpad::wasteful_vector<unsigned char> const&)
FUNC 11370 7e 0 google_breakpad::ElfClassBuildIDNoteIdentifier
FUNC 113f0 4d4 0 google_breakpad::FileID::ElfFileIdentifierFromMappedFile(void const*, google_breakpad::wasteful_vector<unsigned char>&)
FUNC 118d0 7c 0 google_breakpad::FileID::ElfFileIdentifier(google_breakpad::wasteful_vector<unsigned char>&)
FUNC 11950 bb 0 CreateGUID(MDGUID*)
FUNC 11a10 75 0 GUIDToString(MDGUID const*, char*, int)
FUNC 11a90 21 0 GUIDGenerator::InitOnceImpl()
FUNC 11ac0 1e 0 my_strlen
FUNC 11ae0 46 0 my_strcmp
FUNC 11b30 56 0 my_strncmp
FUNC 11b90 4c 0 my_strtoui
FUNC 11be0 39 0 my_uint_len
FUNC 11c20 3c 0 my_uitos
FUNC 11c60 34 0 my_strchr
FUNC 11ca0 26 0 my_strrchr
FUNC 11cd0 34 0 my_memchr
FUNC 11d10 7c 0 my_read_hex_ptr
FUNC 11d90 3a 0 my_read_decimal_ptr
FUNC 11dd0 1f 0 my_memset
FUNC 11df0 38 0 my_strlcpy
FUNC 11e30 3b 0 my_strlcat
FUNC 11e70 6c 0 my_isspace
FUNC 11ee0 10 0 google_breakpad::MemoryMappedFile::MemoryMappedFile()
FUNC 11ef0 4b 0 google_breakpad::MemoryMappedFile::Unmap()
FUNC 11f40 5 0 google_breakpad::MemoryMappedFile::~MemoryMappedFile()
FUNC 11f50 1af 0 google_breakpad::MemoryMappedFile::Map(char const*, unsigned long)
FUNC 12100 14 0 google_breakpad::MemoryMappedFile::MemoryMappedFile(char const*, unsigned long)
FUNC 12120 40 0 google_breakpad::SafeReadLink(char const*, char*, unsigned long)
FUNC 12160 2 0 CrashGenerationClientImpl::~CrashGenerationClientImpl
FUNC 12170 213 0 CrashGenerationClientImpl::RequestDump
FUNC 12390 5 0 CrashGenerationClientImpl::~CrashGenerationClientImpl
FUNC 123a0 23 0 google_breakpad::CrashGenerationClient::TryCreate(int)
FUNC 123d0 8 0 google_breakpad::ThreadInfo::GetInstructionPointer() const
FUNC 123e0 2fc 0 google_breakpad::ThreadInfo::FillCPUContext(MDRawContextAMD64*) const
FUNC 126e0 44 0 google_breakpad::ThreadInfo::GetGeneralPurposeRegisters(void**, unsigned long*)
FUNC 12730 47 0 google_breakpad::ThreadInfo::GetFloatingPointRegisters(void**, unsigned long*)
FUNC 12780 8 0 google_breakpad::UContextReader::GetStackPointer(ucontext const*)
FUNC 12790 8 0 google_breakpad::UContextReader::GetInstructionPointer(ucontext const*)
FUNC 127a0 25c 0 google_breakpad::UContextReader::FillCPUContext(MDRawContextAMD64*, ucontext const*, _libc_fpstate const*)
FUNC 12a00 c7 0 isLegalUTF8
FUNC 12ad0 fd 0 ConvertUTF32toUTF16
FUNC 12bd0 118 0 ConvertUTF16toUTF32
FUNC 12cf0 1ff 0 ConvertUTF16toUTF8
FUNC 12ef0 2b 0 isLegalUTF8Sequence
FUNC 12f20 26f 0 ConvertUTF8toUTF16
FUNC 13190 19a 0 ConvertUTF32toUTF8
FUNC 13330 287 0 ConvertUTF8toUTF32
PUBLIC 1aa8 0 _init
PUBLIC 1f40 0 google_breakpad::PageAllocator::FreeAll() [clone .isra.6]
PUBLIC 1f8a 0 google_breakpad::ProcCpuInfoReader::GetValueAndLen(unsigned long*) [clone .isra.21] [clone .part.22]
PUBLIC 1faa 0 google_breakpad::TypedMDRVA<MDRawDirectory>::CopyIndex(unsigned int, MDRawDirectory*) [clone .isra.33] [clone .part.34]
PUBLIC 1fca 0 google_breakpad::TypedMDRVA<MDRawDirectory>::CopyIndex(unsigned int, MDRawDirectory*) [clone .isra.33]
PUBLIC 1fe8 0 google_breakpad::TypedMDRVA<unsigned int>::CopyIndexAfterObject(unsigned int, void const*, unsigned long) [clone .isra.35] [clone .part.36]
PUBLIC 2008 0 (anonymous namespace)::MinidumpWriter::MinidumpWriter(char const*, int, google_breakpad::ExceptionHandler::CrashContext const*, std::__cxx11::list<google_breakpad::MappingEntry, std::allocator<google_breakpad::MappingEntry> > const&, std::__cxx11::list<google_breakpad::AppMemory, std::allocator<google_breakpad::AppMemory> > const&, bool, unsigned long, bool, google_breakpad::LinuxDumper*) [clone .part.94]
PUBLIC 2028 0 (anonymous namespace)::MinidumpWriter::~MinidumpWriter() [clone .constprop.120]
PUBLIC 2054 0 (anonymous namespace)::MinidumpWriter::WriteFile(MDLocationDescriptor*, char const*) [clone .constprop.117]
PUBLIC 2240 0 (anonymous namespace)::MinidumpWriter::WriteProcFile(MDLocationDescriptor*, int, char const*) [clone .constprop.116]
PUBLIC 22b0 0 _start
PUBLIC 22e0 0 deregister_tm_clones
PUBLIC 2320 0 register_tm_clones
PUBLIC 2360 0 __do_global_dtors_aux
PUBLIC 2380 0 frame_dummy
PUBLIC 23a6 0 dumpCallback(google_breakpad::MinidumpDescriptor const&, void*, bool)
PUBLIC 23bd 0 main
PUBLIC 2608 0 __static_initialization_and_destruction_0(int, int)
PUBLIC 2646 0 _GLOBAL__sub_I_main
PUBLIC 265c 0 google_breakpad::MicrodumpExtraInfo::MicrodumpExtraInfo()
PUBLIC 2696 0 google_breakpad::MinidumpDescriptor::MinidumpDescriptor(std::__cxx11::basic_string<char, std::char_traits<char>, std::allocator<char> > const&)
PUBLIC 2752 0 google_breakpad::MinidumpDescriptor::~MinidumpDescriptor()
PUBLIC 2790 0 google_breakpad::ExceptionHandler::InstallHandlersLocked()
PUBLIC 28e0 0 google_breakpad::ExceptionHandler::RestoreHandlersLocked()
PUBLIC 2960 0 google_breakpad::ExceptionHandler::~ExceptionHandler()
PUBLIC 2cb0 0 google_breakpad::ExceptionHandler::SendContinueSignalToChild()
PUBLIC 2d90 0 google_breakpad::ExceptionHandler::GenerateDump(google_breakpad::ExceptionHandler::CrashContext*)
PUBLIC 3260 0 google_breakpad::ExceptionHandler::HandleSignal(int, siginfo_t*, void*)
PUBLIC 3440 0 google_breakpad::ExceptionHandler::SignalHandler(int, siginfo_t*, void*)
PUBLIC 3630 0 google_breakpad::ExceptionHandler::SimulateSignalDelivery(int)
PUBLIC 36b0 0 google_breakpad::ExceptionHandler::WaitForContinueSignal()
PUBLIC 37a0 0 google_breakpad::ExceptionHandler::DoDump(int, void const*, unsigned long)
PUBLIC 3850 0 google_breakpad::ExceptionHandler::ThreadEntry(void*)
PUBLIC 38e0 0 google_breakpad::ExceptionHandler::WriteMinidump()
PUBLIC 3a80 0 google_breakpad::ExceptionHandler::AddMappingInfo(std::__cxx11::basic_string<char, std::char_traits<char>, std::allocator<char> > const&, unsigned char const*, unsigned long, unsigned long, unsigned long)
PUBLIC 3b70 0 google_breakpad::ExceptionHandler::RegisterAppMemory(void*, unsigned long)
PUBLIC 3c10 0 google_breakpad::ExceptionHandler::UnregisterAppMemory(void*)
PUBLIC 3c70 0 google_breakpad::ExceptionHandler::WriteMinidumpForChild(int, int, std::__cxx11::basic_string<char, std::char_traits<char>, std::allocator<char> > const&, bool (*)(google_breakpad::MinidumpDescriptor const&, void*, bool), void*)
PUBLIC 3ed0 0 google_breakpad::SetFirstChanceExceptionHandler(bool (*)(int, void*, void*))
PUBLIC 3ee0 0 google_breakpad::ExceptionHandler::ExceptionHandler(google_breakpad::MinidumpDescriptor const&, bool (*)(void*), bool (*)(google_breakpad::MinidumpDescriptor const&, void*, bool), void*, bool, int)
PUBLIC 4290 0 google_breakpad::ExceptionHandler::WriteMinidump(std::__cxx11::basic_string<char, std::char_traits<char>, std::allocator<char> > const&, bool (*)(google_breakpad::MinidumpDescriptor const&, void*, bool), void*)
PUBLIC 4530 0 void std::vector<google_breakpad::ExceptionHandler*, std::allocator<google_breakpad::ExceptionHandler*> >::_M_emplace_back_aux<google_breakpad::ExceptionHandler*>(google_breakpad::ExceptionHandler*&&)
PUBLIC 4620 0 void std::__cxx11::basic_string<char, std::char_traits<char>, std::allocator<char> >::_M_construct<char*>(char*, char*, std::forward_iterator_tag) [clone .isra.16]
PUBLIC 46f0 0 google_breakpad::MinidumpDescriptor::MinidumpDescriptor(google_breakpad::MinidumpDescriptor const&)
PUBLIC 47b0 0 google_breakpad::MinidumpDescriptor::UpdatePath()
PUBLIC 4ad0 0 google_breakpad::MinidumpDescriptor::operator=(google_breakpad::MinidumpDescriptor const&)
PUBLIC 4ba0 0 logger::write(char const*, unsigned long)
PUBLIC 4be0 0 google_breakpad::WriteMicrodump(int, void const*, unsigned long, std::__cxx11::list<google_breakpad::MappingEntry, std::allocator<google_breakpad::MappingEntry> > const&, bool, unsigned long, bool, google_breakpad::MicrodumpExtraInfo const&)
PUBLIC 6910 0 void std::vector<unsigned char, google_breakpad::PageStdAllocator<unsigned char> >::_M_range_insert<unsigned char const*>(__gnu_cxx::__normal_iterator<unsigned char*, std::vector<unsigned char, google_breakpad::PageStdAllocator<unsigned char> > >, unsigned char const*, unsigned char const*, std::forward_iterator_tag)
PUBLIC 6d00 0 google_breakpad::LinuxDumper::LateInit()
PUBLIC 6d10 0 google_breakpad::LinuxDumper::EnumerateMappings()
PUBLIC 75d0 0 google_breakpad::LinuxDumper::LinuxDumper(int, char const*)
PUBLIC 7e20 0 google_breakpad::LinuxDumper::~LinuxDumper()
PUBLIC 7e90 0 google_breakpad::LinuxDumper::~LinuxDumper()
PUBLIC 7eb0 0 google_breakpad::LinuxDumper::SetCrashInfoFromSigInfo(siginfo_t const&)
PUBLIC 7ed0 0 google_breakpad::LinuxDumper::GetCrashSignalString() const
PUBLIC 80d0 0 google_breakpad::LinuxDumper::GetMappingAbsolutePath(google_breakpad::MappingInfo const&, char*) const
PUBLIC 8120 0 google_breakpad::(anonymous namespace)::ElfFileSoName(google_breakpad::LinuxDumper const&, google_breakpad::MappingInfo const&, char*, unsigned long) [clone .constprop.58]
PUBLIC 82b0 0 google_breakpad::LinuxDumper::HandleDeletedFileInMapping(char*) const [clone .part.15] [clone .constprop.59]
PUBLIC 8460 0 google_breakpad::LinuxDumper::GetMappingEffectiveNameAndPath(google_breakpad::MappingInfo const&, char*, unsigned long, char*, unsigned long)
PUBLIC 8550 0 google_breakpad::LinuxDumper::ReadAuxv()
PUBLIC 8670 0 google_breakpad::LinuxDumper::Init()
PUBLIC 86b0 0 google_breakpad::LinuxDumper::StackHasPointerToMapping(unsigned char const*, unsigned long, unsigned long, google_breakpad::MappingInfo const&)
PUBLIC 8720 0 google_breakpad::LinuxDumper::FindMapping(void const*) const
PUBLIC 8770 0 google_breakpad::LinuxDumper::GetStackInfo(void const**, unsigned long*, unsigned long)
PUBLIC 87f0 0 google_breakpad::LinuxDumper::FindMappingNoBias(unsigned long) const
PUBLIC 8840 0 google_breakpad::LinuxDumper::SanitizeStackCopy(unsigned char*, unsigned long, unsigned long, unsigned long)
PUBLIC 8a40 0 google_breakpad::LinuxDumper::HandleDeletedFileInMapping(char*) const
PUBLIC 8aa0 0 google_breakpad::LinuxDumper::ElfFileIdentifierForMapping(google_breakpad::MappingInfo const&, bool, unsigned int, google_breakpad::wasteful_vector<unsigned char>&)
PUBLIC 8df0 0 google_breakpad::PageAllocator::Alloc(unsigned long)
PUBLIC 8f40 0 google_breakpad::LinuxPtraceDumper::IsPostMortem() const
PUBLIC 8f50 0 google_breakpad::LinuxPtraceDumper::CopyFromProcess(void*, int, void const*, unsigned long)
PUBLIC 90e0 0 google_breakpad::LinuxPtraceDumper::BuildProcPath(char*, int, char const*) const
PUBLIC 91a0 0 google_breakpad::LinuxPtraceDumper::ThreadsResume()
PUBLIC 9260 0 google_breakpad::LinuxPtraceDumper::EnumerateThreads()
PUBLIC 9870 0 google_breakpad::LinuxPtraceDumper::LinuxPtraceDumper(int)
PUBLIC 98a0 0 google_breakpad::LinuxPtraceDumper::ReadRegisterSet(google_breakpad::ThreadInfo*, int)
PUBLIC 9990 0 google_breakpad::LinuxPtraceDumper::ReadRegisters(google_breakpad::ThreadInfo*, int)
PUBLIC 9a70 0 google_breakpad::LinuxPtraceDumper::GetThreadInfoByIndex(unsigned long, google_breakpad::ThreadInfo*)
PUBLIC 9f50 0 google_breakpad::LinuxPtraceDumper::ThreadsSuspend()
PUBLIC a1b0 0 google_breakpad::LinuxPtraceDumper::~LinuxPtraceDumper()
PUBLIC a1d0 0 google_breakpad::LinuxPtraceDumper::~LinuxPtraceDumper()
PUBLIC a1f0 0 std::vector<int, google_breakpad::PageStdAllocator<int> >::_M_default_append(unsigned long)
PUBLIC a480 0 (anonymous namespace)::MinidumpWriter::WriteThreadListStream(MDRawDirectory*) [clone .constprop.106]
PUBLIC b370 0 (anonymous namespace)::MinidumpWriter::Dump() [clone .constprop.105]
PUBLIC d560 0 google_breakpad::WriteMinidump(char const*, std::__cxx11::list<google_breakpad::MappingEntry, std::allocator<google_breakpad::MappingEntry> > const&, std::__cxx11::list<google_breakpad::AppMemory, std::allocator<google_breakpad::AppMemory> > const&, google_breakpad::LinuxDumper*)
PUBLIC dad0 0 google_breakpad::WriteMinidump(char const*, int, int)
PUBLIC e190 0 (anonymous namespace)::WriteMinidumpImpl(char const*, int, long, int, void const*, unsigned long, std::__cxx11::list<google_breakpad::MappingEntry, std::allocator<google_breakpad::MappingEntry> > const&, std::__cxx11::list<google_breakpad::AppMemory, std::allocator<google_breakpad::AppMemory> > const&, bool, unsigned long, bool)
PUBLIC e700 0 google_breakpad::WriteMinidump(char const*, int, void const*, unsigned long, bool, unsigned long, bool)
PUBLIC e820 0 google_breakpad::WriteMinidump(int, int, void const*, unsigned long, bool, unsigned long, bool)
PUBLIC e940 0 google_breakpad::WriteMinidump(char const*, int, void const*, unsigned long, std::__cxx11::list<google_breakpad::MappingEntry, std::allocator<google_breakpad::MappingEntry> > const&, std::__cxx11::list<google_breakpad::AppMemory, std::allocator<google_breakpad::AppMemory> > const&, bool, unsigned long, bool)
PUBLIC e980 0 google_breakpad::WriteMinidump(int, int, void const*, unsigned long, std::__cxx11::list<google_breakpad::MappingEntry, std::allocator<google_breakpad::MappingEntry> > const&, std::__cxx11::list<google_breakpad::AppMemory, std::allocator<google_breakpad::AppMemory> > const&, bool, unsigned long, bool)
PUBLIC e9c0 0 google_breakpad::WriteMinidump(char const*, long, int, void const*, unsigned long, std::__cxx11::list<google_breakpad::MappingEntry, std::allocator<google_breakpad::MappingEntry> > const&, std::__cxx11::list<google_breakpad::AppMemory, std::allocator<google_breakpad::AppMemory> > const&, bool, unsigned long, bool)
PUBLIC ea00 0 google_breakpad::WriteMinidump(int, long, int, void const*, unsigned long, std::__cxx11::list<google_breakpad::MappingEntry, std::allocator<google_breakpad::MappingEntry> > const&, std::__cxx11::list<google_breakpad::AppMemory, std::allocator<google_breakpad::AppMemory> > const&, bool, unsigned long, bool)
PUBLIC ea40 0 google_breakpad::ProcCpuInfoReader::GetNextField(char const**)
PUBLIC eca0 0 std::vector<char, google_breakpad::PageStdAllocator<char> >::resize(unsigned long)
PUBLIC ef00 0 void std::vector<MDMemoryDescriptor, google_breakpad::PageStdAllocator<MDMemoryDescriptor> >::_M_emplace_back_aux<MDMemoryDescriptor const&>(MDMemoryDescriptor const&)
PUBLIC f150 0 google_breakpad::TypedMDRVA<MDString>::CopyIndexAfterObject(unsigned int, void const*, unsigned long) [clone .isra.7] [clone .part.8]
PUBLIC f180 0 google_breakpad::MinidumpFileWriter::MinidumpFileWriter()
PUBLIC f1a0 0 google_breakpad::MinidumpFileWriter::Open(char const*)
PUBLIC f220 0 google_breakpad::MinidumpFileWriter::SetFile(int)
PUBLIC f250 0 google_breakpad::MinidumpFileWriter::Close()
PUBLIC f2b0 0 google_breakpad::MinidumpFileWriter::~MinidumpFileWriter()
PUBLIC f2d0 0 google_breakpad::MinidumpFileWriter::Allocate(unsigned long)
PUBLIC f390 0 google_breakpad::MinidumpFileWriter::Copy(unsigned int, void const*, long)
PUBLIC f490 0 google_breakpad::MinidumpFileWriter::CopyStringToMDString(wchar_t const*, unsigned int, google_breakpad::TypedMDRVA<MDString>*)
PUBLIC f580 0 google_breakpad::MinidumpFileWriter::CopyStringToMDString(char const*, unsigned int, google_breakpad::TypedMDRVA<MDString>*)
PUBLIC f670 0 google_breakpad::UntypedMDRVA::Allocate(unsigned long)
PUBLIC f6c0 0 google_breakpad::UntypedMDRVA::Copy(unsigned int, void const*, unsigned long)
PUBLIC f750 0 google_breakpad::MinidumpFileWriter::WriteMemory(void const*, unsigned long, MDMemoryDescriptor*)
PUBLIC f830 0 google_breakpad::MinidumpFileWriter::WriteString(wchar_t const*, unsigned int, MDLocationDescriptor*)
PUBLIC f840 0 google_breakpad::MinidumpFileWriter::WriteString(char const*, unsigned int, MDLocationDescriptor*)
PUBLIC f850 0 bool google_breakpad::MinidumpFileWriter::WriteStringCore<wchar_t>(wchar_t const*, unsigned int, MDLocationDescriptor*)
PUBLIC fa90 0 bool google_breakpad::MinidumpFileWriter::WriteStringCore<char>(char const*, unsigned int, MDLocationDescriptor*)
PUBLIC fcd0 0 void std::__cxx11::basic_string<char, std::char_traits<char>, std::allocator<char> >::_M_construct<char const*>(char const*, char const*, std::forward_iterator_tag) [clone .isra.34]
PUBLIC fda0 0 google_breakpad::UTF8ToUTF16Char(char const*, int, unsigned short*)
PUBLIC fe60 0 google_breakpad::UTF32ToUTF16Char(wchar_t, unsigned short*)
PUBLIC fee0 0 google_breakpad::UTF16ToUTF8[abi:cxx11](std::vector<unsigned short, std::allocator<unsigned short> > const&, bool)
PUBLIC 10060 0 google_breakpad::UTF32ToUTF16(wchar_t const*, std::vector<unsigned short, std::allocator<unsigned short> >*)
PUBLIC 10150 0 google_breakpad::UTF8ToUTF16(char const*, std::vector<unsigned short, std::allocator<unsigned short> >*)
PUBLIC 10240 0 std::vector<unsigned short, std::allocator<unsigned short> >::_M_fill_insert(__gnu_cxx::__normal_iterator<unsigned short*, std::vector<unsigned short, std::allocator<unsigned short> > >, unsigned long, unsigned short const&)
PUBLIC 10500 0 std::vector<unsigned short, std::allocator<unsigned short> >::_M_default_append(unsigned long)
PUBLIC 10650 0 google_breakpad::IsValidElf(void const*)
PUBLIC 10670 0 google_breakpad::ElfClass(void const*)
PUBLIC 10680 0 google_breakpad::FindElfSection(void const*, char const*, unsigned int, void const**, unsigned long*)
PUBLIC 10af0 0 google_breakpad::FindElfSegments(void const*, unsigned int, google_breakpad::wasteful_vector<google_breakpad::ElfSegment>*)
PUBLIC 10dd0 0 void std::vector<google_breakpad::ElfSegment, google_breakpad::PageStdAllocator<google_breakpad::ElfSegment> >::_M_emplace_back_aux<google_breakpad::ElfSegment const&>(google_breakpad::ElfSegment const&)
PUBLIC 11020 0 google_breakpad::bytes_to_hex_string(unsigned char const*, unsigned long)
PUBLIC 11160 0 google_breakpad::FileID::FileID(char const*)
PUBLIC 11250 0 google_breakpad::FileID::ConvertIdentifierToUUIDString[abi:cxx11](google_breakpad::wasteful_vector<unsigned char> const&)
PUBLIC 11320 0 google_breakpad::FileID::ConvertIdentifierToString[abi:cxx11](google_breakpad::wasteful_vector<unsigned char> const&)
PUBLIC 11370 0 google_breakpad::ElfClassBuildIDNoteIdentifier(void const*, unsigned long, google_breakpad::wasteful_vector<unsigned char>&)
PUBLIC 113f0 0 google_breakpad::FileID::ElfFileIdentifierFromMappedFile(void const*, google_breakpad::wasteful_vector<unsigned char>&)
PUBLIC 118d0 0 google_breakpad::FileID::ElfFileIdentifier(google_breakpad::wasteful_vector<unsigned char>&)
PUBLIC 11950 0 CreateGUID(MDGUID*)
PUBLIC 11a10 0 GUIDToString(MDGUID const*, char*, int)
PUBLIC 11a90 0 GUIDGenerator::InitOnceImpl()
PUBLIC 11ac0 0 my_strlen
PUBLIC 11ae0 0 my_strcmp
PUBLIC 11b30 0 my_strncmp
PUBLIC 11b90 0 my_strtoui
PUBLIC 11be0 0 my_uint_len
PUBLIC 11c20 0 my_uitos
PUBLIC 11c60 0 my_strchr
PUBLIC 11ca0 0 my_strrchr
PUBLIC 11cd0 0 my_memchr
PUBLIC 11d10 0 my_read_hex_ptr
PUBLIC 11d90 0 my_read_decimal_ptr
PUBLIC 11dd0 0 my_memset
PUBLIC 11df0 0 my_strlcpy
PUBLIC 11e30 0 my_strlcat
PUBLIC 11e70 0 my_isspace
PUBLIC 11ee0 0 google_breakpad::MemoryMappedFile::MemoryMappedFile()
PUBLIC 11ef0 0 google_breakpad::MemoryMappedFile::Unmap()
PUBLIC 11f40 0 google_breakpad::MemoryMappedFile::~MemoryMappedFile()
PUBLIC 11f50 0 google_breakpad::MemoryMappedFile::Map(char const*, unsigned long)
PUBLIC 12100 0 google_breakpad::MemoryMappedFile::MemoryMappedFile(char const*, unsigned long)
PUBLIC 12120 0 google_breakpad::SafeReadLink(char const*, char*, unsigned long)
PUBLIC 12160 0 google_breakpad::(anonymous namespace)::CrashGenerationClientImpl::~CrashGenerationClientImpl()
PUBLIC 12170 0 google_breakpad::(anonymous namespace)::CrashGenerationClientImpl::RequestDump(void const*, unsigned long)
PUBLIC 12390 0 google_breakpad::(anonymous namespace)::CrashGenerationClientImpl::~CrashGenerationClientImpl()
PUBLIC 123a0 0 google_breakpad::CrashGenerationClient::TryCreate(int)
PUBLIC 123d0 0 google_breakpad::ThreadInfo::GetInstructionPointer() const
PUBLIC 123e0 0 google_breakpad::ThreadInfo::FillCPUContext(MDRawContextAMD64*) const
PUBLIC 126e0 0 google_breakpad::ThreadInfo::GetGeneralPurposeRegisters(void**, unsigned long*)
PUBLIC 12730 0 google_breakpad::ThreadInfo::GetFloatingPointRegisters(void**, unsigned long*)
PUBLIC 12780 0 google_breakpad::UContextReader::GetStackPointer(ucontext const*)
PUBLIC 12790 0 google_breakpad::UContextReader::GetInstructionPointer(ucontext const*)
PUBLIC 127a0 0 google_breakpad::UContextReader::FillCPUContext(MDRawContextAMD64*, ucontext const*, _libc_fpstate const*)
PUBLIC 12a00 0 isLegalUTF8
PUBLIC 12ad0 0 ConvertUTF32toUTF16
PUBLIC 12bd0 0 ConvertUTF16toUTF32
PUBLIC 12cf0 0 ConvertUTF16toUTF8
PUBLIC 12ef0 0 isLegalUTF8Sequence
PUBLIC 12f20 0 ConvertUTF8toUTF16
PUBLIC 13190 0 ConvertUTF32toUTF8
PUBLIC 13330 0 ConvertUTF8toUTF32
PUBLIC 135c0 0 __libc_csu_init
PUBLIC 13630 0 __libc_csu_fini
PUBLIC 13634 0 _fini
STACK CFI INIT 22b0 2a .cfa: $rsp 8 + .ra: .cfa -8 + ^
STACK CFI INIT 1ad0 460 .cfa: $rsp 16 + .ra: .cfa -8 + ^
STACK CFI 1ad6 .cfa: $rsp 24 +
STACK CFI INIT 265c 3a .cfa: $rsp 8 + .ra: .cfa -8 + ^
STACK CFI 265d $rbp: .cfa -16 + ^ .cfa: $rsp 16 +
STACK CFI 2660 .cfa: $rbp 16 +
STACK CFI 2695 .cfa: $rsp 8 +
STACK CFI INIT 2696 bc .cfa: $rsp 8 + .ra: .cfa -8 + ^
STACK CFI 2697 $rbp: .cfa -16 + ^ .cfa: $rsp 16 +
STACK CFI 269a .cfa: $rbp 16 +
STACK CFI 2751 .cfa: $rsp 8 +
STACK CFI INIT 23a6 17 .cfa: $rsp 8 + .ra: .cfa -8 + ^
STACK CFI 23a7 $rbp: .cfa -16 + ^ .cfa: $rsp 16 +
STACK CFI 23aa .cfa: $rbp 16 +
STACK CFI 23bc .cfa: $rsp 8 +
STACK CFI INIT 2752 2f .cfa: $rsp 8 + .ra: .cfa -8 + ^
STACK CFI 2753 $rbp: .cfa -16 + ^ .cfa: $rsp 16 +
STACK CFI 2756 .cfa: $rbp 16 +
STACK CFI 2780 .cfa: $rsp 8 +
STACK CFI INIT 23bd 24b .cfa: $rsp 8 + .ra: .cfa -8 + ^
STACK CFI 23be $rbp: .cfa -16 + ^ .cfa: $rsp 16 +
STACK CFI 23c1 .cfa: $rbp 16 +
STACK CFI 23c9 $rbx: .cfa -24 + ^
STACK CFI 2607 .cfa: $rsp 8 +
STACK CFI INIT 2608 3e .cfa: $rsp 8 + .ra: .cfa -8 + ^
STACK CFI 2609 $rbp: .cfa -16 + ^ .cfa: $rsp 16 +
STACK CFI 260c .cfa: $rbp 16 +
STACK CFI 2645 .cfa: $rsp 8 +
STACK CFI INIT 2646 15 .cfa: $rsp 8 + .ra: .cfa -8 + ^
STACK CFI 2647 $rbp: .cfa -16 + ^ .cfa: $rsp 16 +
STACK CFI 264a .cfa: $rbp 16 +
STACK CFI 265a .cfa: $rsp 8 +
STACK CFI INIT 2790 14b .cfa: $rsp 8 + .ra: .cfa -8 + ^
STACK CFI 2792 $r14: .cfa -16 + ^ .cfa: $rsp 16 +
STACK CFI 2794 $r13: .cfa -24 + ^ .cfa: $rsp 24 +
STACK CFI 2796 $r12: .cfa -32 + ^ .cfa: $rsp 32 +
STACK CFI 2797 $rbp: .cfa -40 + ^ .cfa: $rsp 40 +
STACK CFI 2798 $rbx: .cfa -48 + ^ .cfa: $rsp 48 +
STACK CFI 279f .cfa: $rsp 208 +
STACK CFI 2830 .cfa: $rsp 48 +
STACK CFI 2831 .cfa: $rsp 40 +
STACK CFI 2832 .cfa: $rsp 32 +
STACK CFI 2834 .cfa: $rsp 24 +
STACK CFI 2836 .cfa: $rsp 16 +
STACK CFI 2838 .cfa: $rsp 8 +
STACK CFI 2840 .cfa: $rsp 208 +
STACK CFI INIT 28e0 7c .cfa: $rsp 8 + .ra: .cfa -8 + ^
STACK CFI 28eb $r13: .cfa -16 + ^ .cfa: $rsp 16 +
STACK CFI 28ed $r12: .cfa -24 + ^ .cfa: $rsp 24 +
STACK CFI 28f5 $rbp: .cfa -32 + ^ .cfa: $rsp 32 +
STACK CFI 28f6 $rbx: .cfa -40 + ^ .cfa: $rsp 40 +
STACK CFI 290e .cfa: $rsp 48 +
STACK CFI 2941 .cfa: $rsp 40 +
STACK CFI 2942 $rbx: $rbx .cfa: $rsp 32 +
STACK CFI 2943 $rbp: $rbp .cfa: $rsp 24 +
STACK CFI 2945 $r12: $r12 .cfa: $rsp 16 +
STACK CFI 2947 $r13: $r13 .cfa: $rsp 8 +
STACK CFI 2950 $r12: .cfa -24 + ^ $r13: .cfa -16 + ^ $rbp: .cfa -32 + ^ $rbx: .cfa -40 + ^ .cfa: $rsp 48 +
STACK CFI INIT 2960 341 .cfa: $rsp 8 + .ra: .cfa -8 + ^
STACK CFI 2962 $r12: .cfa -16 + ^ .cfa: $rsp 16 +
STACK CFI 2963 $rbp: .cfa -24 + ^ .cfa: $rsp 24 +
STACK CFI 2964 $rbx: .cfa -32 + ^ .cfa: $rsp 32 +
STACK CFI 2972 .cfa: $rsp 96 +
STACK CFI 2b23 .cfa: $rsp 32 +
STACK CFI 2b24 .cfa: $rsp 24 +
STACK CFI 2b25 .cfa: $rsp 16 +
STACK CFI 2b27 .cfa: $rsp 8 +
STACK CFI 2b30 .cfa: $rsp 96 +
STACK CFI INIT 2cb0 d1 .cfa: $rsp 8 + .ra: .cfa -8 + ^
STACK CFI 2cb2 $r15: .cfa -16 + ^ .cfa: $rsp 16 +
STACK CFI 2cb4 $r14: .cfa -24 + ^ .cfa: $rsp 24 +
STACK CFI 2cb9 $r13: .cfa -32 + ^ .cfa: $rsp 32 +
STACK CFI 2cbb $r12: .cfa -40 + ^ .cfa: $rsp 40 +
STACK CFI 2cc3 $rbp: .cfa -48 + ^ .cfa: $rsp 48 +
STACK CFI 2cc4 $rbx: .cfa -56 + ^ .cfa: $rsp 56 +
STACK CFI 2cd3 .cfa: $rsp 64 +
STACK CFI 2cfe .cfa: $rsp 56 +
STACK CFI 2cff .cfa: $rsp 48 +
STACK CFI 2d00 .cfa: $rsp 40 +
STACK CFI 2d02 .cfa: $rsp 32 +
STACK CFI 2d04 .cfa: $rsp 24 +
STACK CFI 2d06 .cfa: $rsp 16 +
STACK CFI 2d08 .cfa: $rsp 8 +
STACK CFI 2d10 .cfa: $rsp 64 +
STACK CFI 2d5c .cfa: $rsp 56 +
STACK CFI 2d69 .cfa: $rsp 48 +
STACK CFI 2d6a .cfa: $rsp 40 +
STACK CFI 2d6c .cfa: $rsp 32 +
STACK CFI 2d6e .cfa: $rsp 24 +
STACK CFI 2d70 .cfa: $rsp 16 +
STACK CFI 2d72 .cfa: $rsp 8 +
STACK CFI 2d77 .cfa: $rsp 64 +
STACK CFI INIT 2d90 4c4 .cfa: $rsp 8 + .ra: .cfa -8 + ^
STACK CFI 2d92 $r15: .cfa -16 + ^ .cfa: $rsp 16 +
STACK CFI 2d94 $r14: .cfa -24 + ^ .cfa: $rsp 24 +
STACK CFI 2d96 $r13: .cfa -32 + ^ .cfa: $rsp 32 +
STACK CFI 2d98 $r12: .cfa -40 + ^ .cfa: $rsp 40 +
STACK CFI 2d99 $rbp: .cfa -48 + ^ .cfa: $rsp 48 +
STACK CFI 2d9a $rbx: .cfa -56 + ^ .cfa: $rsp 56 +
STACK CFI 2da4 .cfa: $rsp 144 +
STACK CFI 2de4 .cfa: $rsp 56 +
STACK CFI 2de5 .cfa: $rsp 48 +
STACK CFI 2de6 .cfa: $rsp 40 +
STACK CFI 2de8 .cfa: $rsp 32 +
STACK CFI 2dea .cfa: $rsp 24 +
STACK CFI 2dec .cfa: $rsp 16 +
STACK CFI 2dee .cfa: $rsp 8 +
STACK CFI 2df0 .cfa: $rsp 144 +
STACK CFI INIT 3260 1da .cfa: $rsp 8 + .ra: .cfa -8 + ^
STACK CFI 3262 $r13: .cfa -16 + ^ .cfa: $rsp 16 +
STACK CFI 3264 $r12: .cfa -24 + ^ .cfa: $rsp 24 +
STACK CFI 3268 $rbp: .cfa -32 + ^ .cfa: $rsp 32 +
STACK CFI 3269 $rbx: .cfa -40 + ^ .cfa: $rsp 40 +
STACK CFI 3273 .cfa: $rsp 48 +
STACK CFI 3289 .cfa: $rsp 40 +
STACK CFI 328a .cfa: $rsp 32 +
STACK CFI 328b .cfa: $rsp 24 +
STACK CFI 328d .cfa: $rsp 16 +
STACK CFI 328f .cfa: $rsp 8 +
STACK CFI 3290 .cfa: $rsp 48 +
STACK CFI 33fd .cfa: $rsp 40 +
STACK CFI 3408 .cfa: $rsp 32 +
STACK CFI 3409 .cfa: $rsp 24 +
STACK CFI 340b .cfa: $rsp 16 +
STACK CFI 340d .cfa: $rsp 8 +
STACK CFI 3418 .cfa: $rsp 48 +
STACK CFI INIT 3440 1ef .cfa: $rsp 8 + .ra: .cfa -8 + ^
STACK CFI 3442 $r14: .cfa -16 + ^ .cfa: $rsp 16 +
STACK CFI 3444 $r13: .cfa -24 + ^ .cfa: $rsp 24 +
STACK CFI 3449 $r12: .cfa -32 + ^ .cfa: $rsp 32 +
STACK CFI 344a $rbp: .cfa -40 + ^ .cfa: $rsp 40 +
STACK CFI 344e $rbx: .cfa -48 + ^ .cfa: $rsp 48 +
STACK CFI 3458 .cfa: $rsp 208 +
STACK CFI 349b .cfa: $rsp 48 +
STACK CFI 349c .cfa: $rsp 40 +
STACK CFI 349d .cfa: $rsp 32 +
STACK CFI 349f .cfa: $rsp 24 +
STACK CFI 34a1 .cfa: $rsp 16 +
STACK CFI 34a3 .cfa: $rsp 8 +
STACK CFI 34a8 .cfa: $rsp 208 +
STACK CFI INIT 3630 7f .cfa: $rsp 8 + .ra: .cfa -8 + ^
STACK CFI 3637 .cfa: $rsp 1104 +
STACK CFI 36a9 .cfa: $rsp 8 +
STACK CFI 36aa .cfa: $rsp 1104 +
STACK CFI INIT 36b0 e5 .cfa: $rsp 8 + .ra: .cfa -8 + ^
STACK CFI 36b2 $r15: .cfa -16 + ^ .cfa: $rsp 16 +
STACK CFI 36b4 $r14: .cfa -24 + ^ .cfa: $rsp 24 +
STACK CFI 36b9 $r13: .cfa -32 + ^ .cfa: $rsp 32 +
STACK CFI 36bb $r12: .cfa -40 + ^ .cfa: $rsp 40 +
STACK CFI 36bf $rbp: .cfa -48 + ^ .cfa: $rsp 48 +
STACK CFI 36c0 $rbx: .cfa -56 + ^ .cfa: $rsp 56 +
STACK CFI 36c9 .cfa: $rsp 80 +
STACK CFI 371a .cfa: $rsp 56 +
STACK CFI 371b .cfa: $rsp 48 +
STACK CFI 371c .cfa: $rsp 40 +
STACK CFI 371e .cfa: $rsp 32 +
STACK CFI 3720 .cfa: $rsp 24 +
STACK CFI 3722 .cfa: $rsp 16 +
STACK CFI 3724 .cfa: $rsp 8 +
STACK CFI 3728 .cfa: $rsp 80 +
STACK CFI INIT 37a0 ac .cfa: $rsp 8 + .ra: .cfa -8 + ^
STACK CFI 37a1 $rbx: .cfa -16 + ^ .cfa: $rsp 16 +
STACK CFI 37df .cfa: $rsp 24 +
STACK CFI 37e1 .cfa: $rsp 32 +
STACK CFI 37ea .cfa: $rsp 40 +
STACK CFI 37eb .cfa: $rsp 48 +
STACK CFI 37fd .cfa: $rsp 16 +
STACK CFI 37fe .cfa: $rsp 8 +
STACK CFI 3800 .cfa: $rsp 16 +
STACK CFI 3811 .cfa: $rsp 24 +
STACK CFI 3813 .cfa: $rsp 32 +
STACK CFI 381c .cfa: $rsp 24 +
STACK CFI 381d .cfa: $rsp 16 +
STACK CFI 381e .cfa: $rsp 8 +
STACK CFI 3820 .cfa: $rsp 16 +
STACK CFI 382c .cfa: $rsp 24 +
STACK CFI 382e .cfa: $rsp 32 +
STACK CFI 3837 .cfa: $rsp 40 +
STACK CFI 3838 .cfa: $rsp 48 +
STACK CFI 384a .cfa: $rsp 16 +
STACK CFI 384b .cfa: $rsp 8 +
STACK CFI INIT 3850 82 .cfa: $rsp 8 + .ra: .cfa -8 + ^
STACK CFI 3851 $rbp: .cfa -16 + ^ .cfa: $rsp 16 +
STACK CFI 3852 $rbx: .cfa -24 + ^ .cfa: $rsp 24 +
STACK CFI 385e .cfa: $rsp 32 +
STACK CFI 38c9 .cfa: $rsp 24 +
STACK CFI 38d0 .cfa: $rsp 16 +
STACK CFI 38d1 .cfa: $rsp 8 +
STACK CFI INIT 38e0 195 .cfa: $rsp 8 + .ra: .cfa -8 + ^
STACK CFI 38e1 $rbx: .cfa -16 + ^ .cfa: $rsp 16 +
STACK CFI 38e8 .cfa: $rsp 1632 +
STACK CFI 397e .cfa: $rsp 16 +
STACK CFI 397f .cfa: $rsp 8 +
STACK CFI 3980 .cfa: $rsp 1632 +
STACK CFI INIT 3a80 e3 .cfa: $rsp 8 + .ra: .cfa -8 + ^
STACK CFI 3a82 $r14: .cfa -16 + ^ .cfa: $rsp 16 +
STACK CFI 3a84 $r13: .cfa -24 + ^ .cfa: $rsp 24 +
STACK CFI 3a88 $rbp: .cfa -32 + ^ .cfa: $rsp 32 +
STACK CFI 3a89 $rbx: .cfa -40 + ^ .cfa: $rsp 40 +
STACK CFI 3a98 .cfa: $rsp 672 +
STACK CFI 3b57 .cfa: $rsp 40 +
STACK CFI 3b58 .cfa: $rsp 32 +
STACK CFI 3b59 .cfa: $rsp 24 +
STACK CFI 3b5b .cfa: $rsp 16 +
STACK CFI 3b5d .cfa: $rsp 8 +
STACK CFI 3b5e .cfa: $rsp 672 +
STACK CFI INIT 3b70 91 .cfa: $rsp 8 + .ra: .cfa -8 + ^
STACK CFI 3b72 $r13: .cfa -16 + ^ .cfa: $rsp 16 +
STACK CFI 3b74 $r12: .cfa -24 + ^ .cfa: $rsp 24 +
STACK CFI 3b75 $rbp: .cfa -32 + ^ .cfa: $rsp 32 +
STACK CFI 3b76 $rbx: .cfa -40 + ^ .cfa: $rsp 40 +
STACK CFI 3b81 .cfa: $rsp 48 +
STACK CFI 3baa .cfa: $rsp 40 +
STACK CFI 3bab .cfa: $rsp 32 +
STACK CFI 3bac .cfa: $rsp 24 +
STACK CFI 3bae .cfa: $rsp 16 +
STACK CFI 3bb0 .cfa: $rsp 8 +
STACK CFI 3bb8 .cfa: $rsp 48 +
STACK CFI 3bfa .cfa: $rsp 40 +
STACK CFI 3bfb .cfa: $rsp 32 +
STACK CFI 3bfc .cfa: $rsp 24 +
STACK CFI 3bfe .cfa: $rsp 16 +
STACK CFI 3c00 .cfa: $rsp 8 +
STACK CFI INIT 3c10 52 .cfa: $rsp 8 + .ra: .cfa -8 + ^
STACK CFI 3c11 $rbx: .cfa -16 + ^ .cfa: $rsp 16 +
STACK CFI 3c52 .cfa: $rsp 8 +
STACK CFI 3c60 .cfa: $rsp 16 +
STACK CFI 3c61 .cfa: $rsp 8 +
STACK CFI INIT 3c70 25d .cfa: $rsp 8 + .ra: .cfa -8 + ^
STACK CFI 3c72 $r15: .cfa -16 + ^ .cfa: $rsp 16 +
STACK CFI 3c74 $r14: .cfa -24 + ^ .cfa: $rsp 24 +
STACK CFI 3c79 $r13: .cfa -32 + ^ .cfa: $rsp 32 +
STACK CFI 3c7b $r12: .cfa -40 + ^ .cfa: $rsp 40 +
STACK CFI 3c7f $rbp: .cfa -48 + ^ .cfa: $rsp 48 +
STACK CFI 3c80 $rbx: .cfa -56 + ^ .cfa: $rsp 56 +
STACK CFI 3c90 .cfa: $rsp 240 +
STACK CFI 3e0e .cfa: $rsp 56 +
STACK CFI 3e0f .cfa: $rsp 48 +
STACK CFI 3e10 .cfa: $rsp 40 +
STACK CFI 3e12 .cfa: $rsp 32 +
STACK CFI 3e14 .cfa: $rsp 24 +
STACK CFI 3e16 .cfa: $rsp 16 +
STACK CFI 3e18 .cfa: $rsp 8 +
STACK CFI 3e20 .cfa: $rsp 240 +
STACK CFI INIT 3ed0 8 .cfa: $rsp 8 + .ra: .cfa -8 + ^
STACK CFI INIT 4530 ea .cfa: $rsp 8 + .ra: .cfa -8 + ^
STACK CFI 4532 $r15: .cfa -16 + ^ .cfa: $rsp 16 +
STACK CFI 4534 $r14: .cfa -24 + ^ .cfa: $rsp 24 +
STACK CFI 4539 $r13: .cfa -32 + ^ .cfa: $rsp 32 +
STACK CFI 453b $r12: .cfa -40 + ^ .cfa: $rsp 40 +
STACK CFI 453f $rbp: .cfa -48 + ^ .cfa: $rsp 48 +
STACK CFI 4540 $rbx: .cfa -56 + ^ .cfa: $rsp 56 +
STACK CFI 4544 .cfa: $rsp 64 +
STACK CFI 45ca .cfa: $rsp 56 +
STACK CFI 45cb .cfa: $rsp 48 +
STACK CFI 45cc .cfa: $rsp 40 +
STACK CFI 45ce .cfa: $rsp 32 +
STACK CFI 45d0 .cfa: $rsp 24 +
STACK CFI 45d2 .cfa: $rsp 16 +
STACK CFI 45d4 .cfa: $rsp 8 +
STACK CFI 45d8 .cfa: $rsp 64 +
STACK CFI INIT 3ee0 3a6 .cfa: $rsp 8 + .ra: .cfa -8 + ^
STACK CFI 3ee2 $r15: .cfa -16 + ^ .cfa: $rsp 16 +
STACK CFI 3ee4 $r14: .cfa -24 + ^ .cfa: $rsp 24 +
STACK CFI 3ee9 $r13: .cfa -32 + ^ .cfa: $rsp 32 +
STACK CFI 3eef $r12: .cfa -40 + ^ .cfa: $rsp 40 +
STACK CFI 3ef0 $rbp: .cfa -48 + ^ .cfa: $rsp 48 +
STACK CFI 3ef1 $rbx: .cfa -56 + ^ .cfa: $rsp 56 +
STACK CFI 3ef8 .cfa: $rsp 80 +
STACK CFI 4052 .cfa: $rsp 56 +
STACK CFI 4053 .cfa: $rsp 48 +
STACK CFI 4054 .cfa: $rsp 40 +
STACK CFI 4056 .cfa: $rsp 32 +
STACK CFI 4058 .cfa: $rsp 24 +
STACK CFI 405a .cfa: $rsp 16 +
STACK CFI 405c .cfa: $rsp 8 +
STACK CFI 4060 .cfa: $rsp 80 +
STACK CFI INIT 4290 295 .cfa: $rsp 8 + .ra: .cfa -8 + ^
STACK CFI 4291 $rbp: .cfa -16 + ^ .cfa: $rsp 16 +
STACK CFI 4294 .cfa: $rbp 16 +
STACK CFI 429c $r12: .cfa -48 + ^ $r13: .cfa -40 + ^ $r14: .cfa -32 + ^ $r15: .cfa -24 + ^
STACK CFI 42a0 $rbx: .cfa -56 + ^
STACK CFI 446a .cfa: $rsp 8 +
STACK CFI 4470 .cfa: $rbp 16 +
STACK CFI INIT 4620 c2 .cfa: $rsp 8 + .ra: .cfa -8 + ^
STACK CFI 4622 $r12: .cfa -16 + ^ .cfa: $rsp 16 +
STACK CFI 4623 $rbp: .cfa -24 + ^ .cfa: $rsp 24 +
STACK CFI 4627 $rbx: .cfa -32 + ^ .cfa: $rsp 32 +
STACK CFI 462e .cfa: $rsp 48 +
STACK CFI 469a .cfa: $rsp 32 +
STACK CFI 469b .cfa: $rsp 24 +
STACK CFI 469c .cfa: $rsp 16 +
STACK CFI 469e .cfa: $rsp 8 +
STACK CFI 46a0 .cfa: $rsp 48 +
STACK CFI INIT 46f0 c0 .cfa: $rsp 8 + .ra: .cfa -8 + ^
STACK CFI 46f1 $rbp: .cfa -16 + ^ .cfa: $rsp 16 +
STACK CFI 46f2 $rbx: .cfa -24 + ^ .cfa: $rsp 24 +
STACK CFI 4700 .cfa: $rsp 32 +
STACK CFI 478e .cfa: $rsp 24 +
STACK CFI 478f .cfa: $rsp 16 +
STACK CFI 4790 .cfa: $rsp 8 +
STACK CFI 4791 .cfa: $rsp 32 +
STACK CFI INIT 47b0 317 .cfa: $rsp 8 + .ra: .cfa -8 + ^
STACK CFI 47b2 $r13: .cfa -16 + ^ .cfa: $rsp 16 +
STACK CFI 47b4 $r12: .cfa -24 + ^ .cfa: $rsp 24 +
STACK CFI 47b5 $rbp: .cfa -32 + ^ .cfa: $rsp 32 +
STACK CFI 47b6 $rbx: .cfa -40 + ^ .cfa: $rsp 40 +
STACK CFI 47bd .cfa: $rsp 208 +
STACK CFI 4a09 .cfa: $rsp 40 +
STACK CFI 4a0a .cfa: $rsp 32 +
STACK CFI 4a0b .cfa: $rsp 24 +
STACK CFI 4a0d .cfa: $rsp 16 +
STACK CFI 4a0f .cfa: $rsp 8 +
STACK CFI 4a10 .cfa: $rsp 208 +
STACK CFI INIT 4ad0 c2 .cfa: $rsp 8 + .ra: .cfa -8 + ^
STACK CFI 4ad1 $rbp: .cfa -16 + ^ .cfa: $rsp 16 +
STACK CFI 4ad2 $rbx: .cfa -24 + ^ .cfa: $rsp 24 +
STACK CFI 4ad6 .cfa: $rsp 32 +
STACK CFI 4b6d .cfa: $rsp 24 +
STACK CFI 4b71 .cfa: $rsp 16 +
STACK CFI 4b72 .cfa: $rsp 8 +
STACK CFI 4b73 .cfa: $rsp 32 +
STACK CFI INIT 4ba0 33 .cfa: $rsp 8 + .ra: .cfa -8 + ^
STACK CFI 4bac $rbx: .cfa -16 + ^ .cfa: $rsp 16 +
STACK CFI 4bd2 .cfa: $rsp 8 +
STACK CFI INIT 6910 3ea .cfa: $rsp 8 + .ra: .cfa -8 + ^
STACK CFI 691b $r15: .cfa -16 + ^ .cfa: $rsp 16 +
STACK CFI 691d $r14: .cfa -24 + ^ .cfa: $rsp 24 +
STACK CFI 6922 $r13: .cfa -32 + ^ .cfa: $rsp 32 +
STACK CFI 6924 $r12: .cfa -40 + ^ .cfa: $rsp 40 +
STACK CFI 6928 $rbp: .cfa -48 + ^ .cfa: $rsp 48 +
STACK CFI 6929 $rbx: .cfa -56 + ^ .cfa: $rsp 56 +
STACK CFI 6939 .cfa: $rsp 96 +
STACK CFI 69ac .cfa: $rsp 56 +
STACK CFI 69ad $rbx: $rbx .cfa: $rsp 48 +
STACK CFI 69ae $rbp: $rbp .cfa: $rsp 40 +
STACK CFI 69b0 $r12: $r12 .cfa: $rsp 32 +
STACK CFI 69b2 $r13: $r13 .cfa: $rsp 24 +
STACK CFI 69b4 $r14: $r14 .cfa: $rsp 16 +
STACK CFI 69b6 $r15: $r15 .cfa: $rsp 8 +
STACK CFI 69c0 $r12: .cfa -40 + ^ $r13: .cfa -32 + ^ $r14: .cfa -24 + ^ $r15: .cfa -16 + ^ $rbp: .cfa -48 + ^ $rbx: .cfa -56 + ^ .cfa: $rsp 96 +
STACK CFI 6a30 .cfa: $rsp 56 +
STACK CFI 6a37 $rbx: $rbx .cfa: $rsp 48 +
STACK CFI 6a38 $rbp: $rbp .cfa: $rsp 40 +
STACK CFI 6a3a $r12: $r12 .cfa: $rsp 32 +
STACK CFI 6a3c $r13: $r13 .cfa: $rsp 24 +
STACK CFI 6a3e $r14: $r14 .cfa: $rsp 16 +
STACK CFI 6a40 $r15: $r15 .cfa: $rsp 8 +
STACK CFI 6a48 $r12: .cfa -40 + ^ $r13: .cfa -32 + ^ $r14: .cfa -24 + ^ $r15: .cfa -16 + ^ $rbp: .cfa -48 + ^ $rbx: .cfa -56 + ^ .cfa: $rsp 96 +
STACK CFI 6b2d .cfa: $rsp 56 +
STACK CFI 6b2e $rbx: $rbx .cfa: $rsp 48 +
STACK CFI 6b2f $rbp: $rbp .cfa: $rsp 40 +
STACK CFI 6b31 $r12: $r12 .cfa: $rsp 32 +
STACK CFI 6b33 $r13: $r13 .cfa: $rsp 24 +
STACK CFI 6b35 $r14: $r14 .cfa: $rsp 16 +
STACK CFI 6b37 $r15: $r15 .cfa: $rsp 8 +
STACK CFI 6b40 $r12: .cfa -40 + ^ $r13: .cfa -32 + ^ $r14: .cfa -24 + ^ $r15: .cfa -16 + ^ $rbp: .cfa -48 + ^ $rbx: .cfa -56 + ^ .cfa: $rsp 96 +
STACK CFI INIT 4be0 1d2b .cfa: $rsp 8 + .ra: .cfa -8 + ^
STACK CFI 4be1 $rbp: .cfa -16 + ^ .cfa: $rsp 16 +
STACK CFI 4be4 .cfa: $rbp 16 +
STACK CFI 4bec $r12: .cfa -48 + ^ $r13: .cfa -40 + ^ $r14: .cfa -32 + ^ $r15: .cfa -24 + ^
STACK CFI 4bf0 $rbx: .cfa -56 + ^
STACK CFI 4c9c .cfa: $rsp 8 +
STACK CFI 4ca0 .cfa: $rbp 16 +
STACK CFI INIT 6d00 6 .cfa: $rsp 8 + .ra: .cfa -8 + ^
STACK CFI INIT 8df0 143 .cfa: $rsp 8 + .ra: .cfa -8 + ^
STACK CFI 8dfb $r15: .cfa -16 + ^ .cfa: $rsp 16 +
STACK CFI 8dfd $r14: .cfa -24 + ^ .cfa: $rsp 24 +
STACK CFI 8dff $r13: .cfa -32 + ^ .cfa: $rsp 32 +
STACK CFI 8e01 $r12: .cfa -40 + ^ .cfa: $rsp 40 +
STACK CFI 8e02 $rbp: .cfa -48 + ^ .cfa: $rsp 48 +
STACK CFI 8e03 $rbx: .cfa -56 + ^ .cfa: $rsp 56 +
STACK CFI 8e0a .cfa: $rsp 64 +
STACK CFI 8e3c .cfa: $rsp 56 +
STACK CFI 8e3d $rbx: $rbx .cfa: $rsp 48 +
STACK CFI 8e3e $rbp: $rbp .cfa: $rsp 40 +
STACK CFI 8e40 $r12: $r12 .cfa: $rsp 32 +
STACK CFI 8e42 $r13: $r13 .cfa: $rsp 24 +
STACK CFI 8e44 $r14: $r14 .cfa: $rsp 16 +
STACK CFI 8e46 $r15: $r15 .cfa: $rsp 8 +
STACK CFI 8e50 $r12: .cfa -40 + ^ $r13: .cfa -32 + ^ $r14: .cfa -24 + ^ $r15: .cfa -16 + ^ $rbp: .cfa -48 + ^ $rbx: .cfa -56 + ^ .cfa: $rsp 64 +
STACK CFI 8eff .cfa: $rsp 56 +
STACK CFI 8f04 $rbx: $rbx .cfa: $rsp 48 +
STACK CFI 8f05 $rbp: $rbp .cfa: $rsp 40 +
STACK CFI 8f07 $r12: $r12 .cfa: $rsp 32 +
STACK CFI 8f09 $r13: $r13 .cfa: $rsp 24 +
STACK CFI 8f0b $r14: $r14 .cfa: $rsp 16 +
STACK CFI 8f0d $r15: $r15 .cfa: $rsp 8 +
STACK CFI 8f10 $r12: .cfa -40 + ^ $r13: .cfa -32 + ^ $r14: .cfa -24 + ^ $r15: .cfa -16 + ^ $rbp: .cfa -48 + ^ $rbx: .cfa -56 + ^ .cfa: $rsp 64 +
STACK CFI 8f24 .cfa: $rsp 56 +
STACK CFI 8f25 $rbx: $rbx .cfa: $rsp 48 +
STACK CFI 8f26 $rbp: $rbp .cfa: $rsp 40 +
STACK CFI 8f28 $r12: $r12 .cfa: $rsp 32 +
STACK CFI 8f2a $r13: $r13 .cfa: $rsp 24 +
STACK CFI 8f2c $r14: $r14 .cfa: $rsp 16 +
STACK CFI 8f2e $r15: $r15 .cfa: $rsp 8 +
STACK CFI INIT 6d10 8b2 .cfa: $rsp 8 + .ra: .cfa -8 + ^
STACK CFI 6d12 $r15: .cfa -16 + ^ .cfa: $rsp 16 +
STACK CFI 6d14 $r14: .cfa -24 + ^ .cfa: $rsp 24 +
STACK CFI 6d1d $r13: .cfa -32 + ^ .cfa: $rsp 32 +
STACK CFI 6d1f $r12: .cfa -40 + ^ .cfa: $rsp 40 +
STACK CFI 6d23 $rbp: .cfa -48 + ^ .cfa: $rsp 48 +
STACK CFI 6d24 $rbx: .cfa -56 + ^ .cfa: $rsp 56 +
STACK CFI 6d2b .cfa: $rsp 448 +
STACK CFI 6f22 .cfa: $rsp 56 +
STACK CFI 6f23 .cfa: $rsp 48 +
STACK CFI 6f24 .cfa: $rsp 40 +
STACK CFI 6f26 .cfa: $rsp 32 +
STACK CFI 6f28 .cfa: $rsp 24 +
STACK CFI 6f2a .cfa: $rsp 16 +
STACK CFI 6f2c .cfa: $rsp 8 +
STACK CFI 6f2d .cfa: $rsp 448 +
STACK CFI INIT 75d0 845 .cfa: $rsp 8 + .ra: .cfa -8 + ^
STACK CFI 75d2 $r15: .cfa -16 + ^ .cfa: $rsp 16 +
STACK CFI 75d4 $r14: .cfa -24 + ^ .cfa: $rsp 24 +
STACK CFI 75dd $r13: .cfa -32 + ^ .cfa: $rsp 32 +
STACK CFI 75df $r12: .cfa -40 + ^ .cfa: $rsp 40 +
STACK CFI 75e6 $rbp: .cfa -48 + ^ .cfa: $rsp 48 +
STACK CFI 75e7 $rbx: .cfa -56 + ^ .cfa: $rsp 56 +
STACK CFI 75f2 .cfa: $rsp 80 +
STACK CFI 784d .cfa: $rsp 56 +
STACK CFI 784e .cfa: $rsp 48 +
STACK CFI 784f .cfa: $rsp 40 +
STACK CFI 7851 .cfa: $rsp 32 +
STACK CFI 7853 .cfa: $rsp 24 +
STACK CFI 7855 .cfa: $rsp 16 +
STACK CFI 7857 .cfa: $rsp 8 +
STACK CFI 7860 .cfa: $rsp 80 +
STACK CFI INIT 7e20 67 .cfa: $rsp 8 + .ra: .cfa -8 + ^
STACK CFI 7e22 $r13: .cfa -16 + ^ .cfa: $rsp 16 +
STACK CFI 7e24 $r12: .cfa -24 + ^ .cfa: $rsp 24 +
STACK CFI 7e28 $rbp: .cfa -32 + ^ .cfa: $rsp 32 +
STACK CFI 7e29 $rbx: .cfa -40 + ^ .cfa: $rsp 40 +
STACK CFI 7e32 .cfa: $rsp 48 +
STACK CFI 7e80 .cfa: $rsp 40 +
STACK CFI 7e81 .cfa: $rsp 32 +
STACK CFI 7e82 .cfa: $rsp 24 +
STACK CFI 7e84 .cfa: $rsp 16 +
STACK CFI 7e86 .cfa: $rsp 8 +
STACK CFI INIT 7e90 12 .cfa: $rsp 8 + .ra: .cfa -8 + ^
STACK CFI 7e91 $rbx: .cfa -16 + ^ .cfa: $rsp 16 +
STACK CFI 7e9d .cfa: $rsp 8 +
STACK CFI INIT 7eb0 14 .cfa: $rsp 8 + .ra: .cfa -8 + ^
STACK CFI INIT 7ed0 1f8 .cfa: $rsp 8 + .ra: .cfa -8 + ^
STACK CFI INIT 80d0 4a .cfa: $rsp 8 + .ra: .cfa -8 + ^
STACK CFI 80d1 $rbp: .cfa -16 + ^ .cfa: $rsp 16 +
STACK CFI 80d2 $rbx: .cfa -24 + ^ .cfa: $rsp 24 +
STACK CFI 80e1 .cfa: $rsp 32 +
STACK CFI 8115 .cfa: $rsp 24 +
STACK CFI 8118 .cfa: $rsp 16 +
STACK CFI 8119 .cfa: $rsp 8 +
STACK CFI INIT 8120 18b .cfa: $rsp 8 + .ra: .cfa -8 + ^
STACK CFI 8122 $r14: .cfa -16 + ^ .cfa: $rsp 16 +
STACK CFI 8124 $r13: .cfa -24 + ^ .cfa: $rsp 24 +
STACK CFI 8129 $r12: .cfa -32 + ^ .cfa: $rsp 32 +
STACK CFI 812a $rbp: .cfa -40 + ^ .cfa: $rsp 40 +
STACK CFI 812f $rbx: .cfa -48 + ^ .cfa: $rsp 48 +
STACK CFI 814b .cfa: $rsp 4208 +
STACK CFI 8189 .cfa: $rsp 48 +
STACK CFI 818a .cfa: $rsp 40 +
STACK CFI 818b .cfa: $rsp 32 +
STACK CFI 818d .cfa: $rsp 24 +
STACK CFI 818f .cfa: $rsp 16 +
STACK CFI 8191 .cfa: $rsp 8 +
STACK CFI 8198 .cfa: $rsp 4208 +
STACK CFI INIT 82b0 1a7 .cfa: $rsp 8 + .ra: .cfa -8 + ^
STACK CFI 82b2 $r14: .cfa -16 + ^ .cfa: $rsp 16 +
STACK CFI 82b4 $r13: .cfa -24 + ^ .cfa: $rsp 24 +
STACK CFI 82bd $r12: .cfa -32 + ^ .cfa: $rsp 32 +
STACK CFI 82be $rbp: .cfa -40 + ^ .cfa: $rsp 40 +
STACK CFI 82c2 $rbx: .cfa -48 + ^ .cfa: $rsp 48 +
STACK CFI 82cc .cfa: $rsp 5008 +
STACK CFI 8319 .cfa: $rsp 48 +
STACK CFI 831a .cfa: $rsp 40 +
STACK CFI 831b .cfa: $rsp 32 +
STACK CFI 831d .cfa: $rsp 24 +
STACK CFI 831f .cfa: $rsp 16 +
STACK CFI 8321 .cfa: $rsp 8 +
STACK CFI 8328 .cfa: $rsp 5008 +
STACK CFI INIT 8460 e6 .cfa: $rsp 8 + .ra: .cfa -8 + ^
STACK CFI 8462 $r15: .cfa -16 + ^ .cfa: $rsp 16 +
STACK CFI 8464 $r14: .cfa -24 + ^ .cfa: $rsp 24 +
STACK CFI 8469 $r13: .cfa -32 + ^ .cfa: $rsp 32 +
STACK CFI 846b $r12: .cfa -40 + ^ .cfa: $rsp 40 +
STACK CFI 846f $rbp: .cfa -48 + ^ .cfa: $rsp 48 +
STACK CFI 8470 $rbx: .cfa -56 + ^ .cfa: $rsp 56 +
STACK CFI 8481 .cfa: $rsp 64 +
STACK CFI 84bb .cfa: $rsp 56 +
STACK CFI 84c2 .cfa: $rsp 48 +
STACK CFI 84c3 .cfa: $rsp 40 +
STACK CFI 84c5 .cfa: $rsp 32 +
STACK CFI 84c7 .cfa: $rsp 24 +
STACK CFI 84c9 .cfa: $rsp 16 +
STACK CFI 84cb .cfa: $rsp 8 +
STACK CFI 84d0 .cfa: $rsp 64 +
STACK CFI 8506 .cfa: $rsp 56 +
STACK CFI 8507 .cfa: $rsp 48 +
STACK CFI 8508 .cfa: $rsp 40 +
STACK CFI 850a .cfa: $rsp 32 +
STACK CFI 850c .cfa: $rsp 24 +
STACK CFI 850e .cfa: $rsp 16 +
STACK CFI 8510 .cfa: $rsp 8 +
STACK CFI 8518 .cfa: $rsp 64 +
STACK CFI 852e .cfa: $rsp 56 +
STACK CFI 8538 .cfa: $rsp 48 +
STACK CFI 8539 .cfa: $rsp 40 +
STACK CFI 853b .cfa: $rsp 32 +
STACK CFI 853d .cfa: $rsp 24 +
STACK CFI 853f .cfa: $rsp 16 +
STACK CFI 8541 .cfa: $rsp 8 +
STACK CFI INIT 8550 119 .cfa: $rsp 8 + .ra: .cfa -8 + ^
STACK CFI 8552 $r13: .cfa -16 + ^ .cfa: $rsp 16 +
STACK CFI 8554 $r12: .cfa -24 + ^ .cfa: $rsp 24 +
STACK CFI 8558 $rbp: .cfa -32 + ^ .cfa: $rsp 32 +
STACK CFI 8559 $rbx: .cfa -40 + ^ .cfa: $rsp 40 +
STACK CFI 8567 .cfa: $rsp 336 +
STACK CFI 8629 .cfa: $rsp 40 +
STACK CFI 862a .cfa: $rsp 32 +
STACK CFI 862b .cfa: $rsp 24 +
STACK CFI 862d .cfa: $rsp 16 +
STACK CFI 862f .cfa: $rsp 8 +
STACK CFI 8630 .cfa: $rsp 336 +
STACK CFI INIT 8670 32 .cfa: $rsp 8 + .ra: .cfa -8 + ^
STACK CFI 8671 $rbx: .cfa -16 + ^ .cfa: $rsp 16 +
STACK CFI 8680 .cfa: $rsp 8 +
STACK CFI 8688 .cfa: $rsp 16 +
STACK CFI 869c .cfa: $rsp 8 +
STACK CFI INIT 86b0 68 .cfa: $rsp 8 + .ra: .cfa -8 + ^
STACK CFI INIT 8720 4b .cfa: $rsp 8 + .ra: .cfa -8 + ^
STACK CFI INIT 8770 7d .cfa: $rsp 8 + .ra: .cfa -8 + ^
STACK CFI 8772 $r13: .cfa -16 + ^ .cfa: $rsp 16 +
STACK CFI 8774 $r12: .cfa -24 + ^ .cfa: $rsp 24 +
STACK CFI 8778 $rbp: .cfa -32 + ^ .cfa: $rsp 32 +
STACK CFI 8779 $rbx: .cfa -40 + ^ .cfa: $rsp 40 +
STACK CFI 8786 .cfa: $rsp 48 +
STACK CFI 87d0 .cfa: $rsp 40 +
STACK CFI 87d1 .cfa: $rsp 32 +
STACK CFI 87d2 .cfa: $rsp 24 +
STACK CFI 87d4 .cfa: $rsp 16 +
STACK CFI 87d6 .cfa: $rsp 8 +
STACK CFI 87e0 .cfa: $rsp 48 +
STACK CFI 87e4 .cfa: $rsp 40 +
STACK CFI 87e7 .cfa: $rsp 32 +
STACK CFI 87e8 .cfa: $rsp 24 +
STACK CFI 87ea .cfa: $rsp 16 +
STACK CFI 87ec .cfa: $rsp 8 +
STACK CFI INIT 87f0 43 .cfa: $rsp 8 + .ra: .cfa -8 + ^
STACK CFI INIT 8840 1fc .cfa: $rsp 8 + .ra: .cfa -8 + ^
STACK CFI 8842 $r15: .cfa -16 + ^ .cfa: $rsp 16 +
STACK CFI 8844 $r14: .cfa -24 + ^ .cfa: $rsp 24 +
STACK CFI 8846 $r13: .cfa -32 + ^ .cfa: $rsp 32 +
STACK CFI 8848 $r12: .cfa -40 + ^ .cfa: $rsp 40 +
STACK CFI 884c $rbp: .cfa -48 + ^ .cfa: $rsp 48 +
STACK CFI 884d $rbx: .cfa -56 + ^ .cfa: $rsp 56 +
STACK CFI 8860 .cfa: $rsp 352 +
STACK CFI 89de .cfa: $rsp 56 +
STACK CFI 89df .cfa: $rsp 48 +
STACK CFI 89e0 .cfa: $rsp 40 +
STACK CFI 89e2 .cfa: $rsp 32 +
STACK CFI 89e4 .cfa: $rsp 24 +
STACK CFI 89e6 .cfa: $rsp 16 +
STACK CFI 89e8 .cfa: $rsp 8 +
STACK CFI 89f0 .cfa: $rsp 352 +
STACK CFI INIT 8a40 53 .cfa: $rsp 8 + .ra: .cfa -8 + ^
STACK CFI 8a41 $rbp: .cfa -16 + ^ .cfa: $rsp 16 +
STACK CFI 8a42 $rbx: .cfa -24 + ^ .cfa: $rsp 24 +
STACK CFI 8a4f .cfa: $rsp 32 +
STACK CFI 8a5e .cfa: $rsp 24 +
STACK CFI 8a61 .cfa: $rsp 16 +
STACK CFI 8a62 .cfa: $rsp 8 +
STACK CFI 8a68 .cfa: $rsp 32 +
STACK CFI 8a86 .cfa: $rsp 24 +
STACK CFI 8a8d .cfa: $rsp 16 +
STACK CFI 8a8e .cfa: $rsp 8 +
STACK CFI INIT 8aa0 34b .cfa: $rsp 8 + .ra: .cfa -8 + ^
STACK CFI 8aa2 $r15: .cfa -16 + ^ .cfa: $rsp 16 +
STACK CFI 8aa4 $r14: .cfa -24 + ^ .cfa: $rsp 24 +
STACK CFI 8aa9 $r13: .cfa -32 + ^ .cfa: $rsp 32 +
STACK CFI 8aab $r12: .cfa -40 + ^ .cfa: $rsp 40 +
STACK CFI 8aaf $rbp: .cfa -48 + ^ .cfa: $rsp 48 +
STACK CFI 8ab0 $rbx: .cfa -56 + ^ .cfa: $rsp 56 +
STACK CFI 8abf .cfa: $rsp 4208 +
STACK CFI 8b33 .cfa: $rsp 56 +
STACK CFI 8b34 .cfa: $rsp 48 +
STACK CFI 8b35 .cfa: $rsp 40 +
STACK CFI 8b37 .cfa: $rsp 32 +
STACK CFI 8b39 .cfa: $rsp 24 +
STACK CFI 8b3b .cfa: $rsp 16 +
STACK CFI 8b3d .cfa: $rsp 8 +
STACK CFI 8b40 .cfa: $rsp 4208 +
STACK CFI INIT 8f40 3 .cfa: $rsp 8 + .ra: .cfa -8 + ^
STACK CFI INIT 8f50 187 .cfa: $rsp 8 + .ra: .cfa -8 + ^
STACK CFI 8f52 $r15: .cfa -16 + ^ .cfa: $rsp 16 +
STACK CFI 8f54 $r14: .cfa -24 + ^ .cfa: $rsp 24 +
STACK CFI 8f56 $r13: .cfa -32 + ^ .cfa: $rsp 32 +
STACK CFI 8f58 $r12: .cfa -40 + ^ .cfa: $rsp 40 +
STACK CFI 8f59 $rbp: .cfa -48 + ^ .cfa: $rsp 48 +
STACK CFI 8f5a $rbx: .cfa -56 + ^ .cfa: $rsp 56 +
STACK CFI 8f5e .cfa: $rsp 112 +
STACK CFI 9045 .cfa: $rsp 56 +
STACK CFI 9046 .cfa: $rsp 48 +
STACK CFI 9047 .cfa: $rsp 40 +
STACK CFI 9049 .cfa: $rsp 32 +
STACK CFI 904b .cfa: $rsp 24 +
STACK CFI 904d .cfa: $rsp 16 +
STACK CFI 904f .cfa: $rsp 8 +
STACK CFI 9050 .cfa: $rsp 112 +
STACK CFI INIT a1b0 13 .cfa: $rsp 8 + .ra: .cfa -8 + ^
STACK CFI INIT a1d0 20 .cfa: $rsp 8 + .ra: .cfa -8 + ^
STACK CFI a1d8 $rbx: .cfa -16 + ^ .cfa: $rsp 16 +
STACK CFI a1eb .cfa: $rsp 8 +
STACK CFI INIT 90e0 bb .cfa: $rsp 8 + .ra: .cfa -8 + ^
STACK CFI 90f8 $r15: .cfa -16 + ^ .cfa: $rsp 16 +
STACK CFI 90fa $r14: .cfa -24 + ^ .cfa: $rsp 24 +
STACK CFI 90ff $r13: .cfa -32 + ^ .cfa: $rsp 32 +
STACK CFI 9101 $r12: .cfa -40 + ^ .cfa: $rsp 40 +
STACK CFI 9105 $rbp: .cfa -48 + ^ .cfa: $rsp 48 +
STACK CFI 9106 $rbx: .cfa -56 + ^ .cfa: $rsp 56 +
STACK CFI 9110 .cfa: $rsp 64 +
STACK CFI 9123 .cfa: $rsp 56 +
STACK CFI 9124 $rbx: $rbx .cfa: $rsp 48 +
STACK CFI 9125 $rbp: $rbp .cfa: $rsp 40 +
STACK CFI 9127 $r12: $r12 .cfa: $rsp 32 +
STACK CFI 9129 $r13: $r13 .cfa: $rsp 24 +
STACK CFI 912b $r14: $r14 .cfa: $rsp 16 +
STACK CFI 912d $r15: $r15 .cfa: $rsp 8 +
STACK CFI 9138 $r12: .cfa -40 + ^ $r13: .cfa -32 + ^ $r14: .cfa -24 + ^ $r15: .cfa -16 + ^ $rbp: .cfa -48 + ^ $rbx: .cfa -56 + ^ .cfa: $rsp 64 +
STACK CFI INIT 91a0 bc .cfa: $rsp 8 + .ra: .cfa -8 + ^
STACK CFI 91b1 $r15: .cfa -16 + ^ .cfa: $rsp 16 +
STACK CFI 91b3 $r14: .cfa -24 + ^ .cfa: $rsp 24 +
STACK CFI 91bb $r13: .cfa -32 + ^ .cfa: $rsp 32 +
STACK CFI 91bd $r12: .cfa -40 + ^ .cfa: $rsp 40 +
STACK CFI 91c1 $rbp: .cfa -48 + ^ .cfa: $rsp 48 +
STACK CFI 91c2 $rbx: .cfa -56 + ^ .cfa: $rsp 56 +
STACK CFI 91c6 .cfa: $rsp 64 +
STACK CFI 924d .cfa: $rsp 56 +
STACK CFI 9251 $rbx: $rbx .cfa: $rsp 48 +
STACK CFI 9252 $rbp: $rbp .cfa: $rsp 40 +
STACK CFI 9254 $r12: $r12 .cfa: $rsp 32 +
STACK CFI 9256 $r13: $r13 .cfa: $rsp 24 +
STACK CFI 9258 $r14: $r14 .cfa: $rsp 16 +
STACK CFI 925a $r15: $r15 .cfa: $rsp 8 +
STACK CFI INIT 9260 605 .cfa: $rsp 8 + .ra: .cfa -8 + ^
STACK CFI 9262 $r15: .cfa -16 + ^ .cfa: $rsp 16 +
STACK CFI 9264 $r14: .cfa -24 + ^ .cfa: $rsp 24 +
STACK CFI 926d $r13: .cfa -32 + ^ .cfa: $rsp 32 +
STACK CFI 926f $r12: .cfa -40 + ^ .cfa: $rsp 40 +
STACK CFI 9273 $rbp: .cfa -48 + ^ .cfa: $rsp 48 +
STACK CFI 9274 $rbx: .cfa -56 + ^ .cfa: $rsp 56 +
STACK CFI 927b .cfa: $rsp 416 +
STACK CFI 93cf .cfa: $rsp 56 +
STACK CFI 93d0 .cfa: $rsp 48 +
STACK CFI 93d1 .cfa: $rsp 40 +
STACK CFI 93d3 .cfa: $rsp 32 +
STACK CFI 93d5 .cfa: $rsp 24 +
STACK CFI 93d7 .cfa: $rsp 16 +
STACK CFI 93d9 .cfa: $rsp 8 +
STACK CFI 93e0 .cfa: $rsp 416 +
STACK CFI INIT 9870 27 .cfa: $rsp 8 + .ra: .cfa -8 + ^
STACK CFI 9871 $rbx: .cfa -16 + ^ .cfa: $rsp 16 +
STACK CFI 9896 .cfa: $rsp 8 +
STACK CFI INIT 98a0 e3 .cfa: $rsp 8 + .ra: .cfa -8 + ^
STACK CFI 98a2 $r15: .cfa -16 + ^ .cfa: $rsp 16 +
STACK CFI 98a4 $r14: .cfa -24 + ^ .cfa: $rsp 24 +
STACK CFI 98a9 $r13: .cfa -32 + ^ .cfa: $rsp 32 +
STACK CFI 98ab $r12: .cfa -40 + ^ .cfa: $rsp 40 +
STACK CFI 98af $rbp: .cfa -48 + ^ .cfa: $rsp 48 +
STACK CFI 98b0 $rbx: .cfa -56 + ^ .cfa: $rsp 56 +
STACK CFI 98c2 .cfa: $rsp 112 +
STACK CFI 992e .cfa: $rsp 56 +
STACK CFI 992f .cfa: $rsp 48 +
STACK CFI 9930 .cfa: $rsp 40 +
STACK CFI 9932 .cfa: $rsp 32 +
STACK CFI 9934 .cfa: $rsp 24 +
STACK CFI 9936 .cfa: $rsp 16 +
STACK CFI 9938 .cfa: $rsp 8 +
STACK CFI 9940 .cfa: $rsp 112 +
STACK CFI INIT 9990 d1 .cfa: $rsp 8 + .ra: .cfa -8 + ^
STACK CFI 9992 $r14: .cfa -16 + ^ .cfa: $rsp 16 +
STACK CFI 9994 $r13: .cfa -24 + ^ .cfa: $rsp 24 +
STACK CFI 9999 $r12: .cfa -32 + ^ .cfa: $rsp 32 +
STACK CFI 999a $rbp: .cfa -40 + ^ .cfa: $rsp 40 +
STACK CFI 999e $rbx: .cfa -48 + ^ .cfa: $rsp 48 +
STACK CFI 99af .cfa: $rsp 80 +
STACK CFI 9a0c .cfa: $rsp 48 +
STACK CFI 9a0d .cfa: $rsp 40 +
STACK CFI 9a0e .cfa: $rsp 32 +
STACK CFI 9a10 .cfa: $rsp 24 +
STACK CFI 9a12 .cfa: $rsp 16 +
STACK CFI 9a14 .cfa: $rsp 8 +
STACK CFI 9a18 .cfa: $rsp 80 +
STACK CFI INIT 9a70 4d1 .cfa: $rsp 8 + .ra: .cfa -8 + ^
STACK CFI 9a72 $r15: .cfa -16 + ^ .cfa: $rsp 16 +
STACK CFI 9a74 $r14: .cfa -24 + ^ .cfa: $rsp 24 +
STACK CFI 9a76 $r13: .cfa -32 + ^ .cfa: $rsp 32 +
STACK CFI 9a78 $r12: .cfa -40 + ^ .cfa: $rsp 40 +
STACK CFI 9a7c $rbp: .cfa -48 + ^ .cfa: $rsp 48 +
STACK CFI 9a7d $rbx: .cfa -56 + ^ .cfa: $rsp 56 +
STACK CFI 9a84 .cfa: $rsp 368 +
STACK CFI 9c98 .cfa: $rsp 56 +
STACK CFI 9c99 .cfa: $rsp 48 +
STACK CFI 9c9a .cfa: $rsp 40 +
STACK CFI 9c9c .cfa: $rsp 32 +
STACK CFI 9c9e .cfa: $rsp 24 +
STACK CFI 9ca0 .cfa: $rsp 16 +
STACK CFI 9ca2 .cfa: $rsp 8 +
STACK CFI 9ca8 .cfa: $rsp 368 +
STACK CFI INIT a1f0 288 .cfa: $rsp 8 + .ra: .cfa -8 + ^
STACK CFI a242 $r15: .cfa -16 + ^ .cfa: $rsp 16 +
STACK CFI a244 $r14: .cfa -24 + ^ .cfa: $rsp 24 +
STACK CFI a249 $r13: .cfa -32 + ^ .cfa: $rsp 32 +
STACK CFI a24b $r12: .cfa -40 + ^ .cfa: $rsp 40 +
STACK CFI a256 $rbp: .cfa -48 + ^ .cfa: $rsp 48 +
STACK CFI a257 $rbx: .cfa -56 + ^ .cfa: $rsp 56 +
STACK CFI a264 .cfa: $rsp 80 +
STACK CFI a329 .cfa: $rsp 56 +
STACK CFI a32a $rbx: $rbx .cfa: $rsp 48 +
STACK CFI a32b $rbp: $rbp .cfa: $rsp 40 +
STACK CFI a32d $r12: $r12 .cfa: $rsp 32 +
STACK CFI a32f $r13: $r13 .cfa: $rsp 24 +
STACK CFI a331 $r14: $r14 .cfa: $rsp 16 +
STACK CFI a333 $r15: $r15 .cfa: $rsp 8 +
STACK CFI a335 $r12: .cfa -40 + ^ $r13: .cfa -32 + ^ $r14: .cfa -24 + ^ $r15: .cfa -16 + ^ $rbp: .cfa -48 + ^ $rbx: .cfa -56 + ^ .cfa: $rsp 80 +
STACK CFI INIT 9f50 251 .cfa: $rsp 8 + .ra: .cfa -8 + ^
STACK CFI 9f52 $r15: .cfa -16 + ^ .cfa: $rsp 16 +
STACK CFI 9f54 $r14: .cfa -24 + ^ .cfa: $rsp 24 +
STACK CFI 9f56 $r13: .cfa -32 + ^ .cfa: $rsp 32 +
STACK CFI 9f58 $r12: .cfa -40 + ^ .cfa: $rsp 40 +
STACK CFI 9f59 $rbp: .cfa -48 + ^ .cfa: $rsp 48 +
STACK CFI 9f5a $rbx: .cfa -56 + ^ .cfa: $rsp 56 +
STACK CFI 9f61 .cfa: $rsp 304 +
STACK CFI a0d5 .cfa: $rsp 56 +
STACK CFI a0d6 .cfa: $rsp 48 +
STACK CFI a0d7 .cfa: $rsp 40 +
STACK CFI a0d9 .cfa: $rsp 32 +
STACK CFI a0db .cfa: $rsp 24 +
STACK CFI a0dd .cfa: $rsp 16 +
STACK CFI a0df .cfa: $rsp 8 +
STACK CFI a0e0 .cfa: $rsp 304 +
STACK CFI INIT 1f40 4a .cfa: $rsp 8 + .ra: .cfa -8 + ^
STACK CFI 1f42 $r13: .cfa -16 + ^ .cfa: $rsp 16 +
STACK CFI 1f44 $r12: .cfa -24 + ^ .cfa: $rsp 24 +
STACK CFI 1f48 $rbp: .cfa -32 + ^ .cfa: $rsp 32 +
STACK CFI 1f49 $rbx: .cfa -40 + ^ .cfa: $rsp 40 +
STACK CFI 1f4d .cfa: $rsp 48 +
STACK CFI 1f83 .cfa: $rsp 40 +
STACK CFI 1f84 .cfa: $rsp 32 +
STACK CFI 1f85 .cfa: $rsp 24 +
STACK CFI 1f87 .cfa: $rsp 16 +
STACK CFI 1f89 .cfa: $rsp 8 +
STACK CFI INIT 1f8a 20 .cfa: $rsp 8 + .ra: .cfa -8 + ^
STACK CFI 1f92 .cfa: $rsp 16 +
STACK CFI INIT 1faa 20 .cfa: $rsp 8 + .ra: .cfa -8 + ^
STACK CFI 1fb2 .cfa: $rsp 16 +
STACK CFI INIT 1fca 1d .cfa: $rsp 8 + .ra: .cfa -8 + ^
STACK CFI 1fd0 .cfa: $rsp 16 +
STACK CFI 1fd5 .cfa: $rsp 8 +
STACK CFI INIT 1fe8 20 .cfa: $rsp 8 + .ra: .cfa -8 + ^
STACK CFI 1ff0 .cfa: $rsp 16 +
STACK CFI INIT 2008 20 .cfa: $rsp 8 + .ra: .cfa -8 + ^
STACK CFI 2010 .cfa: $rsp 16 +
STACK CFI INIT 2028 2c .cfa: $rsp 8 + .ra: .cfa -8 + ^
STACK CFI 2029 $rbp: .cfa -16 + ^ .cfa: $rsp 16 +
STACK CFI 202a $rbx: .cfa -24 + ^ .cfa: $rsp 24 +
STACK CFI 202f .cfa: $rsp 32 +
STACK CFI 204a .cfa: $rsp 24 +
STACK CFI 204e .cfa: $rsp 16 +
STACK CFI 204f .cfa: $rsp 8 +
STACK CFI INIT 2054 1ec .cfa: $rsp 8 + .ra: .cfa -8 + ^
STACK CFI 2056 $r15: .cfa -16 + ^ .cfa: $rsp 16 +
STACK CFI 2058 $r14: .cfa -24 + ^ .cfa: $rsp 24 +
STACK CFI 205a $r13: .cfa -32 + ^ .cfa: $rsp 32 +
STACK CFI 205c $r12: .cfa -40 + ^ .cfa: $rsp 40 +
STACK CFI 2060 $rbp: .cfa -48 + ^ .cfa: $rsp 48 +
STACK CFI 2061 $rbx: .cfa -56 + ^ .cfa: $rsp 56 +
STACK CFI 206a .cfa: $rsp 112 +
STACK CFI 2235 .cfa: $rsp 56 +
STACK CFI 2236 .cfa: $rsp 48 +
STACK CFI 2237 .cfa: $rsp 40 +
STACK CFI 2239 .cfa: $rsp 32 +
STACK CFI 223b .cfa: $rsp 24 +
STACK CFI 223d .cfa: $rsp 16 +
STACK CFI 223f .cfa: $rsp 8 +
STACK CFI INIT 2240 67 .cfa: $rsp 8 + .ra: .cfa -8 + ^
STACK CFI 2242 $r12: .cfa -16 + ^ .cfa: $rsp 16 +
STACK CFI 2243 $rbp: .cfa -24 + ^ .cfa: $rsp 24 +
STACK CFI 2247 $rbx: .cfa -32 + ^ .cfa: $rsp 32 +
STACK CFI 2251 .cfa: $rsp 304 +
STACK CFI 22a2 .cfa: $rsp 32 +
STACK CFI 22a3 .cfa: $rsp 24 +
STACK CFI 22a4 .cfa: $rsp 16 +
STACK CFI 22a6 .cfa: $rsp 8 +
STACK CFI INIT ea40 259 .cfa: $rsp 8 + .ra: .cfa -8 + ^
STACK CFI ea42 $r15: .cfa -16 + ^ .cfa: $rsp 16 +
STACK CFI ea44 $r14: .cfa -24 + ^ .cfa: $rsp 24 +
STACK CFI ea4a $r13: .cfa -32 + ^ .cfa: $rsp 32 +
STACK CFI ea4c $r12: .cfa -40 + ^ .cfa: $rsp 40 +
STACK CFI ea50 $rbp: .cfa -48 + ^ .cfa: $rsp 48 +
STACK CFI ea51 $rbx: .cfa -56 + ^ .cfa: $rsp 56 +
STACK CFI ea58 .cfa: $rsp 64 +
STACK CFI eabd .cfa: $rsp 56 +
STACK CFI eac0 .cfa: $rsp 48 +
STACK CFI eac1 .cfa: $rsp 40 +
STACK CFI eac3 .cfa: $rsp 32 +
STACK CFI eac5 .cfa: $rsp 24 +
STACK CFI eac7 .cfa: $rsp 16 +
STACK CFI eac9 .cfa: $rsp 8 +
STACK CFI ead0 .cfa: $rsp 64 +
STACK CFI eba3 .cfa: $rsp 56 +
STACK CFI eba4 .cfa: $rsp 48 +
STACK CFI ebaa .cfa: $rsp 40 +
STACK CFI ebac .cfa: $rsp 32 +
STACK CFI ebae .cfa: $rsp 24 +
STACK CFI ebb0 .cfa: $rsp 16 +
STACK CFI ebb2 .cfa: $rsp 8 +
STACK CFI ebb8 .cfa: $rsp 64 +
STACK CFI ec6d .cfa: $rsp 56 +
STACK CFI ec70 .cfa: $rsp 48 +
STACK CFI ec71 .cfa: $rsp 40 +
STACK CFI ec73 .cfa: $rsp 32 +
STACK CFI ec75 .cfa: $rsp 24 +
STACK CFI ec77 .cfa: $rsp 16 +
STACK CFI ec79 .cfa: $rsp 8 +
STACK CFI ec7a .cfa: $rsp 64 +
STACK CFI INIT eca0 257 .cfa: $rsp 8 + .ra: .cfa -8 + ^
STACK CFI ecc2 $r15: .cfa -16 + ^ .cfa: $rsp 16 +
STACK CFI ecc4 $r14: .cfa -24 + ^ .cfa: $rsp 24 +
STACK CFI ecc6 $r13: .cfa -32 + ^ .cfa: $rsp 32 +
STACK CFI ecc8 $r12: .cfa -40 + ^ .cfa: $rsp 40 +
STACK CFI ecc9 $rbp: .cfa -48 + ^ .cfa: $rsp 48 +
STACK CFI ecca $rbx: .cfa -56 + ^ .cfa: $rsp 56 +
STACK CFI ecd1 .cfa: $rsp 80 +
STACK CFI ed01 .cfa: $rsp 56 +
STACK CFI ed02 $rbx: $rbx .cfa: $rsp 48 +
STACK CFI ed03 $rbp: $rbp .cfa: $rsp 40 +
STACK CFI ed05 $r12: $r12 .cfa: $rsp 32 +
STACK CFI ed07 $r13: $r13 .cfa: $rsp 24 +
STACK CFI ed09 $r14: $r14 .cfa: $rsp 16 +
STACK CFI ed0b $r15: $r15 .cfa: $rsp 8 +
STACK CFI ed10 $r12: .cfa -40 + ^ $r13: .cfa -32 + ^ $r14: .cfa -24 + ^ $r15: .cfa -16 + ^ $rbp: .cfa -48 + ^ $rbx: .cfa -56 + ^ .cfa: $rsp 80 +
STACK CFI INIT ef00 250 .cfa: $rsp 8 + .ra: .cfa -8 + ^
STACK CFI ef02 $r15: .cfa -16 + ^ .cfa: $rsp 16 +
STACK CFI ef04 $r14: .cfa -24 + ^ .cfa: $rsp 24 +
STACK CFI ef06 $r13: .cfa -32 + ^ .cfa: $rsp 32 +
STACK CFI ef08 $r12: .cfa -40 + ^ .cfa: $rsp 40 +
STACK CFI ef0c $rbp: .cfa -48 + ^ .cfa: $rsp 48 +
STACK CFI ef0d $rbx: .cfa -56 + ^ .cfa: $rsp 56 +
STACK CFI ef14 .cfa: $rsp 80 +
STACK CFI efc0 .cfa: $rsp 56 +
STACK CFI efc1 .cfa: $rsp 48 +
STACK CFI efc2 .cfa: $rsp 40 +
STACK CFI efc4 .cfa: $rsp 32 +
STACK CFI efc6 .cfa: $rsp 24 +
STACK CFI efc8 .cfa: $rsp 16 +
STACK CFI efca .cfa: $rsp 8 +
STACK CFI efd0 .cfa: $rsp 80 +
STACK CFI INIT a480 ee3 .cfa: $rsp 8 + .ra: .cfa -8 + ^
STACK CFI a482 $r15: .cfa -16 + ^ .cfa: $rsp 16 +
STACK CFI a484 $r14: .cfa -24 + ^ .cfa: $rsp 24 +
STACK CFI a486 $r13: .cfa -32 + ^ .cfa: $rsp 32 +
STACK CFI a488 $r12: .cfa -40 + ^ .cfa: $rsp 40 +
STACK CFI a489 $rbp: .cfa -48 + ^ .cfa: $rsp 48 +
STACK CFI a48a $rbx: .cfa -56 + ^ .cfa: $rsp 56 +
STACK CFI a491 .cfa: $rsp 2448 +
STACK CFI a83d .cfa: $rsp 56 +
STACK CFI a83e .cfa: $rsp 48 +
STACK CFI a83f .cfa: $rsp 40 +
STACK CFI a841 .cfa: $rsp 32 +
STACK CFI a843 .cfa: $rsp 24 +
STACK CFI a845 .cfa: $rsp 16 +
STACK CFI a847 .cfa: $rsp 8 +
STACK CFI a848 .cfa: $rsp 2448 +
STACK CFI INIT b370 21e2 .cfa: $rsp 8 + .ra: .cfa -8 + ^
STACK CFI b371 $rbp: .cfa -16 + ^ .cfa: $rsp 16 +
STACK CFI b379 .cfa: $rbp 16 +
STACK CFI b381 $r12: .cfa -48 + ^ $r13: .cfa -40 + ^ $r14: .cfa -32 + ^ $r15: .cfa -24 + ^
STACK CFI b386 $rbx: .cfa -56 + ^
STACK CFI b4cf .cfa: $rsp 8 +
STACK CFI b4d0 .cfa: $rbp 16 +
STACK CFI INIT d560 566 .cfa: $rsp 8 + .ra: .cfa -8 + ^
STACK CFI d562 $r15: .cfa -16 + ^ .cfa: $rsp 16 +
STACK CFI d564 $r14: .cfa -24 + ^ .cfa: $rsp 24 +
STACK CFI d569 $r13: .cfa -32 + ^ .cfa: $rsp 32 +
STACK CFI d56b $r12: .cfa -40 + ^ .cfa: $rsp 40 +
STACK CFI d56c $rbp: .cfa -48 + ^ .cfa: $rsp 48 +
STACK CFI d56d $rbx: .cfa -56 + ^ .cfa: $rsp 56 +
STACK CFI d577 .cfa: $rsp 288 +
STACK CFI d712 .cfa: $rsp 56 +
STACK CFI d713 .cfa: $rsp 48 +
STACK CFI d714 .cfa: $rsp 40 +
STACK CFI d716 .cfa: $rsp 32 +
STACK CFI d718 .cfa: $rsp 24 +
STACK CFI d71a .cfa: $rsp 16 +
STACK CFI d71c .cfa: $rsp 8 +
STACK CFI d720 .cfa: $rsp 288 +
STACK CFI INIT dad0 6ba .cfa: $rsp 8 + .ra: .cfa -8 + ^
STACK CFI dad2 $r15: .cfa -16 + ^ .cfa: $rsp 16 +
STACK CFI dad4 $r14: .cfa -24 + ^ .cfa: $rsp 24 +
STACK CFI dad9 $r13: .cfa -32 + ^ .cfa: $rsp 32 +
STACK CFI dadb $r12: .cfa -40 + ^ .cfa: $rsp 40 +
STACK CFI dadc $rbp: .cfa -48 + ^ .cfa: $rsp 48 +
STACK CFI dadd $rbx: .cfa -56 + ^ .cfa: $rsp 56 +
STACK CFI dae6 .cfa: $rsp 592 +
STACK CFI dd4d .cfa: $rsp 56 +
STACK CFI dd4e .cfa: $rsp 48 +
STACK CFI dd4f .cfa: $rsp 40 +
STACK CFI dd51 .cfa: $rsp 32 +
STACK CFI dd53 .cfa: $rsp 24 +
STACK CFI dd55 .cfa: $rsp 16 +
STACK CFI dd57 .cfa: $rsp 8 +
STACK CFI dd58 .cfa: $rsp 592 +
STACK CFI INIT e190 56b .cfa: $rsp 8 + .ra: .cfa -8 + ^
STACK CFI e192 $r15: .cfa -16 + ^ .cfa: $rsp 16 +
STACK CFI e194 $r14: .cfa -24 + ^ .cfa: $rsp 24 +
STACK CFI e199 $r13: .cfa -32 + ^ .cfa: $rsp 32 +
STACK CFI e19b $r12: .cfa -40 + ^ .cfa: $rsp 40 +
STACK CFI e19e $rbp: .cfa -48 + ^ .cfa: $rsp 48 +
STACK CFI e19f $rbx: .cfa -56 + ^ .cfa: $rsp 56 +
STACK CFI e1ac .cfa: $rsp 560 +
STACK CFI e25a .cfa: $rsp 56 +
STACK CFI e25b .cfa: $rsp 48 +
STACK CFI e25c .cfa: $rsp 40 +
STACK CFI e25e .cfa: $rsp 32 +
STACK CFI e260 .cfa: $rsp 24 +
STACK CFI e262 .cfa: $rsp 16 +
STACK CFI e264 .cfa: $rsp 8 +
STACK CFI e268 .cfa: $rsp 560 +
STACK CFI INIT e700 119 .cfa: $rsp 8 + .ra: .cfa -8 + ^
STACK CFI e701 $rbp: .cfa -16 + ^ .cfa: $rsp 16 +
STACK CFI e708 .cfa: $rbp 16 +
STACK CFI e70f $r12: .cfa -40 + ^ $r13: .cfa -32 + ^ $r14: .cfa -24 + ^ $rbx: .cfa -48 + ^
STACK CFI e7d6 .cfa: $rsp 8 +
STACK CFI e7d7 .cfa: $rbp 16 +
STACK CFI INIT e820 119 .cfa: $rsp 8 + .ra: .cfa -8 + ^
STACK CFI e821 $rbp: .cfa -16 + ^ .cfa: $rsp 16 +
STACK CFI e828 .cfa: $rbp 16 +
STACK CFI e82f $r12: .cfa -40 + ^ $r13: .cfa -32 + ^ $r14: .cfa -24 + ^ $rbx: .cfa -48 + ^
STACK CFI e8f6 .cfa: $rsp 8 +
STACK CFI e8f7 .cfa: $rbp 16 +
STACK CFI INIT e940 36 .cfa: $rsp 8 + .ra: .cfa -8 + ^
STACK CFI e944 .cfa: $rsp 24 +
STACK CFI e94a .cfa: $rsp 32 +
STACK CFI e94e .cfa: $rsp 40 +
STACK CFI e954 .cfa: $rsp 48 +
STACK CFI e956 .cfa: $rsp 56 +
STACK CFI e95b .cfa: $rsp 64 +
STACK CFI e975 .cfa: $rsp 8 +
STACK CFI INIT e980 35 .cfa: $rsp 8 + .ra: .cfa -8 + ^
STACK CFI e984 .cfa: $rsp 24 +
STACK CFI e98a .cfa: $rsp 32 +
STACK CFI e98e .cfa: $rsp 40 +
STACK CFI e994 .cfa: $rsp 48 +
STACK CFI e996 .cfa: $rsp 56 +
STACK CFI e99b .cfa: $rsp 64 +
STACK CFI e9b4 .cfa: $rsp 8 +
STACK CFI INIT e9c0 34 .cfa: $rsp 8 + .ra: .cfa -8 + ^
STACK CFI e9c4 .cfa: $rsp 24 +
STACK CFI e9ca .cfa: $rsp 32 +
STACK CFI e9ce .cfa: $rsp 40 +
STACK CFI e9d4 .cfa: $rsp 48 +
STACK CFI e9d8 .cfa: $rsp 56 +
STACK CFI e9da .cfa: $rsp 64 +
STACK CFI e9f3 .cfa: $rsp 8 +
STACK CFI INIT ea00 33 .cfa: $rsp 8 + .ra: .cfa -8 + ^
STACK CFI ea04 .cfa: $rsp 24 +
STACK CFI ea0a .cfa: $rsp 32 +
STACK CFI ea0e .cfa: $rsp 40 +
STACK CFI ea14 .cfa: $rsp 48 +
STACK CFI ea18 .cfa: $rsp 56 +
STACK CFI ea1a .cfa: $rsp 64 +
STACK CFI ea32 .cfa: $rsp 8 +
STACK CFI INIT f150 23 .cfa: $rsp 8 + .ra: .cfa -8 + ^
STACK CFI f169 .cfa: $rsp 16 +
STACK CFI INIT f180 1a .cfa: $rsp 8 + .ra: .cfa -8 + ^
STACK CFI INIT f1a0 78 .cfa: $rsp 8 + .ra: .cfa -8 + ^
STACK CFI f1a2 $r12: .cfa -16 + ^ .cfa: $rsp 16 +
STACK CFI f1a3 $rbp: .cfa -24 + ^ .cfa: $rsp 24 +
STACK CFI f1a7 $rbx: .cfa -32 + ^ .cfa: $rsp 32 +
STACK CFI f1df .cfa: $rsp 24 +
STACK CFI f1e0 .cfa: $rsp 16 +
STACK CFI f1e2 .cfa: $rsp 8 +
STACK CFI f1e8 .cfa: $rsp 32 +
STACK CFI f1f5 .cfa: $rsp 24 +
STACK CFI f1f6 .cfa: $rsp 16 +
STACK CFI f1f8 .cfa: $rsp 8 +
STACK CFI f1f9 .cfa: $rsp 32 +
STACK CFI INIT f220 2c .cfa: $rsp 8 + .ra: .cfa -8 + ^
STACK CFI f234 .cfa: $rsp 16 +
STACK CFI INIT f250 5d .cfa: $rsp 8 + .ra: .cfa -8 + ^
STACK CFI f252 $r12: .cfa -16 + ^ .cfa: $rsp 16 +
STACK CFI f256 $rbp: .cfa -24 + ^ .cfa: $rsp 24 +
STACK CFI f257 $rbx: .cfa -32 + ^ .cfa: $rsp 32 +
STACK CFI f29a .cfa: $rsp 24 +
STACK CFI f29b .cfa: $rsp 16 +
STACK CFI f29d .cfa: $rsp 8 +
STACK CFI f2a0 .cfa: $rsp 32 +
STACK CFI INIT f2b0 15 .cfa: $rsp 8 + .ra: .cfa -8 + ^
STACK CFI INIT f2d0 b6 .cfa: $rsp 8 + .ra: .cfa -8 + ^
STACK CFI f2d2 $r13: .cfa -16 + ^ .cfa: $rsp 16 +
STACK CFI f2d4 $r12: .cfa -24 + ^ .cfa: $rsp 24 +
STACK CFI f2d5 $rbp: .cfa -32 + ^ .cfa: $rsp 32 +
STACK CFI f2d6 $rbx: .cfa -40 + ^ .cfa: $rsp 40 +
STACK CFI f2da .cfa: $rsp 48 +
STACK CFI f30e .cfa: $rsp 40 +
STACK CFI f30f .cfa: $rsp 32 +
STACK CFI f310 .cfa: $rsp 24 +
STACK CFI f312 .cfa: $rsp 16 +
STACK CFI f314 .cfa: $rsp 8 +
STACK CFI f318 .cfa: $rsp 48 +
STACK CFI INIT f390 ff .cfa: $rsp 8 + .ra: .cfa -8 + ^
STACK CFI f391 $rbp: .cfa -16 + ^ .cfa: $rsp 16 +
STACK CFI f392 $rbx: .cfa -24 + ^ .cfa: $rsp 24 +
STACK CFI f396 .cfa: $rsp 32 +
STACK CFI f419 .cfa: $rsp 24 +
STACK CFI f41a .cfa: $rsp 16 +
STACK CFI f41b .cfa: $rsp 8 +
STACK CFI f420 .cfa: $rsp 32 +
STACK CFI f42d .cfa: $rsp 24 +
STACK CFI f430 .cfa: $rsp 16 +
STACK CFI f431 .cfa: $rsp 8 +
STACK CFI f432 .cfa: $rsp 32 +
STACK CFI INIT f490 f0 .cfa: $rsp 8 + .ra: .cfa -8 + ^
STACK CFI f492 $r15: .cfa -16 + ^ .cfa: $rsp 16 +
STACK CFI f494 $r14: .cfa -24 + ^ .cfa: $rsp 24 +
STACK CFI f496 $r13: .cfa -32 + ^ .cfa: $rsp 32 +
STACK CFI f498 $r12: .cfa -40 + ^ .cfa: $rsp 40 +
STACK CFI f499 $rbp: .cfa -48 + ^ .cfa: $rsp 48 +
STACK CFI f49a $rbx: .cfa -56 + ^ .cfa: $rsp 56 +
STACK CFI f49e .cfa: $rsp 80 +
STACK CFI f54a .cfa: $rsp 56 +
STACK CFI f54b .cfa: $rsp 48 +
STACK CFI f54c .cfa: $rsp 40 +
STACK CFI f54e .cfa: $rsp 32 +
STACK CFI f550 .cfa: $rsp 24 +
STACK CFI f552 .cfa: $rsp 16 +
STACK CFI f554 .cfa: $rsp 8 +
STACK CFI f555 .cfa: $rsp 80 +
STACK CFI INIT f580 ef .cfa: $rsp 8 + .ra: .cfa -8 + ^
STACK CFI f582 $r15: .cfa -16 + ^ .cfa: $rsp 16 +
STACK CFI f584 $r14: .cfa -24 + ^ .cfa: $rsp 24 +
STACK CFI f586 $r13: .cfa -32 + ^ .cfa: $rsp 32 +
STACK CFI f588 $r12: .cfa -40 + ^ .cfa: $rsp 40 +
STACK CFI f589 $rbp: .cfa -48 + ^ .cfa: $rsp 48 +
STACK CFI f58a $rbx: .cfa -56 + ^ .cfa: $rsp 56 +
STACK CFI f58e .cfa: $rsp 80 +
STACK CFI f639 .cfa: $rsp 56 +
STACK CFI f63a .cfa: $rsp 48 +
STACK CFI f63b .cfa: $rsp 40 +
STACK CFI f63d .cfa: $rsp 32 +
STACK CFI f63f .cfa: $rsp 24 +
STACK CFI f641 .cfa: $rsp 16 +
STACK CFI f643 .cfa: $rsp 8 +
STACK CFI f644 .cfa: $rsp 80 +
STACK CFI INIT f670 41 .cfa: $rsp 8 + .ra: .cfa -8 + ^
STACK CFI f671 $rbx: .cfa -16 + ^ .cfa: $rsp 16 +
STACK CFI f691 .cfa: $rsp 8 +
STACK CFI f692 .cfa: $rsp 16 +
STACK CFI INIT f6c0 89 .cfa: $rsp 8 + .ra: .cfa -8 + ^
STACK CFI f6c4 .cfa: $rsp 16 +
STACK CFI f6e7 .cfa: $rsp 8 +
STACK CFI f6ec .cfa: $rsp 16 +
STACK CFI INIT f750 df .cfa: $rsp 8 + .ra: .cfa -8 + ^
STACK CFI f752 $r12: .cfa -16 + ^ .cfa: $rsp 16 +
STACK CFI f753 $rbp: .cfa -24 + ^ .cfa: $rsp 24 +
STACK CFI f754 $rbx: .cfa -32 + ^ .cfa: $rsp 32 +
STACK CFI f758 .cfa: $rsp 64 +
STACK CFI f7b5 .cfa: $rsp 32 +
STACK CFI f7b6 .cfa: $rsp 24 +
STACK CFI f7b7 .cfa: $rsp 16 +
STACK CFI f7b9 .cfa: $rsp 8 +
STACK CFI f7c0 .cfa: $rsp 64 +
STACK CFI INIT f850 23a .cfa: $rsp 8 + .ra: .cfa -8 + ^
STACK CFI f852 $r15: .cfa -16 + ^ .cfa: $rsp 16 +
STACK CFI f854 $r14: .cfa -24 + ^ .cfa: $rsp 24 +
STACK CFI f856 $r13: .cfa -32 + ^ .cfa: $rsp 32 +
STACK CFI f858 $r12: .cfa -40 + ^ .cfa: $rsp 40 +
STACK CFI f859 $rbp: .cfa -48 + ^ .cfa: $rsp 48 +
STACK CFI f85a $rbx: .cfa -56 + ^ .cfa: $rsp 56 +
STACK CFI f85e .cfa: $rsp 128 +
STACK CFI f955 .cfa: $rsp 56 +
STACK CFI f956 .cfa: $rsp 48 +
STACK CFI f957 .cfa: $rsp 40 +
STACK CFI f959 .cfa: $rsp 32 +
STACK CFI f95b .cfa: $rsp 24 +
STACK CFI f95d .cfa: $rsp 16 +
STACK CFI f95f .cfa: $rsp 8 +
STACK CFI f960 .cfa: $rsp 128 +
STACK CFI INIT f830 5 .cfa: $rsp 8 + .ra: .cfa -8 + ^
STACK CFI INIT fa90 23a .cfa: $rsp 8 + .ra: .cfa -8 + ^
STACK CFI fa92 $r15: .cfa -16 + ^ .cfa: $rsp 16 +
STACK CFI fa94 $r14: .cfa -24 + ^ .cfa: $rsp 24 +
STACK CFI fa96 $r13: .cfa -32 + ^ .cfa: $rsp 32 +
STACK CFI fa98 $r12: .cfa -40 + ^ .cfa: $rsp 40 +
STACK CFI fa99 $rbp: .cfa -48 + ^ .cfa: $rsp 48 +
STACK CFI fa9a $rbx: .cfa -56 + ^ .cfa: $rsp 56 +
STACK CFI fa9e .cfa: $rsp 128 +
STACK CFI fb8c .cfa: $rsp 56 +
STACK CFI fb8d .cfa: $rsp 48 +
STACK CFI fb8e .cfa: $rsp 40 +
STACK CFI fb90 .cfa: $rsp 32 +
STACK CFI fb92 .cfa: $rsp 24 +
STACK CFI fb94 .cfa: $rsp 16 +
STACK CFI fb96 .cfa: $rsp 8 +
STACK CFI fba0 .cfa: $rsp 128 +
STACK CFI INIT f840 5 .cfa: $rsp 8 + .ra: .cfa -8 + ^
STACK CFI INIT fcd0 c2 .cfa: $rsp 8 + .ra: .cfa -8 + ^
STACK CFI fcd2 $r12: .cfa -16 + ^ .cfa: $rsp 16 +
STACK CFI fcd3 $rbp: .cfa -24 + ^ .cfa: $rsp 24 +
STACK CFI fcd7 $rbx: .cfa -32 + ^ .cfa: $rsp 32 +
STACK CFI fcde .cfa: $rsp 48 +
STACK CFI fd4a .cfa: $rsp 32 +
STACK CFI fd4b .cfa: $rsp 24 +
STACK CFI fd4c .cfa: $rsp 16 +
STACK CFI fd4e .cfa: $rsp 8 +
STACK CFI fd50 .cfa: $rsp 48 +
STACK CFI INIT fda0 b1 .cfa: $rsp 8 + .ra: .cfa -8 + ^
STACK CFI fda2 $r15: .cfa -16 + ^ .cfa: $rsp 16 +
STACK CFI fda4 $r14: .cfa -24 + ^ .cfa: $rsp 24 +
STACK CFI fda8 $r13: .cfa -32 + ^ .cfa: $rsp 32 +
STACK CFI fdaa $r12: .cfa -40 + ^ .cfa: $rsp 40 +
STACK CFI fdae $rbp: .cfa -48 + ^ .cfa: $rsp 48 +
STACK CFI fdaf $rbx: .cfa -56 + ^ .cfa: $rsp 56 +
STACK CFI fdc2 .cfa: $rsp 96 +
STACK CFI fe39 .cfa: $rsp 56 +
STACK CFI fe3a .cfa: $rsp 48 +
STACK CFI fe3b .cfa: $rsp 40 +
STACK CFI fe3d .cfa: $rsp 32 +
STACK CFI fe3f .cfa: $rsp 24 +
STACK CFI fe41 .cfa: $rsp 16 +
STACK CFI fe43 .cfa: $rsp 8 +
STACK CFI fe48 .cfa: $rsp 96 +
STACK CFI INIT fe60 7b .cfa: $rsp 8 + .ra: .cfa -8 + ^
STACK CFI fe61 $rbx: .cfa -16 + ^ .cfa: $rsp 16 +
STACK CFI fe6d .cfa: $rsp 64 +
STACK CFI fed4 .cfa: $rsp 16 +
STACK CFI fed5 .cfa: $rsp 8 +
STACK CFI fed6 .cfa: $rsp 64 +
STACK CFI INIT fee0 173 .cfa: $rsp 8 + .ra: .cfa -8 + ^
STACK CFI fee2 $r14: .cfa -16 + ^ .cfa: $rsp 16 +
STACK CFI fee4 $r13: .cfa -24 + ^ .cfa: $rsp 24 +
STACK CFI fee6 $r12: .cfa -32 + ^ .cfa: $rsp 32 +
STACK CFI fee7 $rbp: .cfa -40 + ^ .cfa: $rsp 40 +
STACK CFI feea $rbx: .cfa -48 + ^ .cfa: $rsp 48 +
STACK CFI fef4 .cfa: $rsp 80 +
STACK CFI ffff .cfa: $rsp 48 +
STACK CFI 10000 .cfa: $rsp 40 +
STACK CFI 10001 .cfa: $rsp 32 +
STACK CFI 10003 .cfa: $rsp 24 +
STACK CFI 10005 .cfa: $rsp 16 +
STACK CFI 10007 .cfa: $rsp 8 +
STACK CFI 10010 .cfa: $rsp 80 +
STACK CFI INIT 10240 2bd .cfa: $rsp 8 + .ra: .cfa -8 + ^
STACK CFI 1024b $r15: .cfa -16 + ^ .cfa: $rsp 16 +
STACK CFI 1024d $r14: .cfa -24 + ^ .cfa: $rsp 24 +
STACK CFI 10252 $r13: .cfa -32 + ^ .cfa: $rsp 32 +
STACK CFI 10254 $r12: .cfa -40 + ^ .cfa: $rsp 40 +
STACK CFI 10255 $rbp: .cfa -48 + ^ .cfa: $rsp 48 +
STACK CFI 10256 $rbx: .cfa -56 + ^ .cfa: $rsp 56 +
STACK CFI 10260 .cfa: $rsp 80 +
STACK CFI 102e1 .cfa: $rsp 56 +
STACK CFI 102e2 $rbx: $rbx .cfa: $rsp 48 +
STACK CFI 102e3 $rbp: $rbp .cfa: $rsp 40 +
STACK CFI 102e5 $r12: $r12 .cfa: $rsp 32 +
STACK CFI 102e7 $r13: $r13 .cfa: $rsp 24 +
STACK CFI 102e9 $r14: $r14 .cfa: $rsp 16 +
STACK CFI 102eb $r15: $r15 .cfa: $rsp 8 +
STACK CFI 102f0 $r12: .cfa -40 + ^ $r13: .cfa -32 + ^ $r14: .cfa -24 + ^ $r15: .cfa -16 + ^ $rbp: .cfa -48 + ^ $rbx: .cfa -56 + ^ .cfa: $rsp 80 +
STACK CFI 10341 .cfa: $rsp 56 +
STACK CFI 10342 $rbx: $rbx .cfa: $rsp 48 +
STACK CFI 10343 $rbp: $rbp .cfa: $rsp 40 +
STACK CFI 10345 $r12: $r12 .cfa: $rsp 32 +
STACK CFI 10347 $r13: $r13 .cfa: $rsp 24 +
STACK CFI 10349 $r14: $r14 .cfa: $rsp 16 +
STACK CFI 1034b $r15: $r15 .cfa: $rsp 8 +
STACK CFI 10350 $r12: .cfa -40 + ^ $r13: .cfa -32 + ^ $r14: .cfa -24 + ^ $r15: .cfa -16 + ^ $rbp: .cfa -48 + ^ $rbx: .cfa -56 + ^ .cfa: $rsp 80 +
STACK CFI 1046e .cfa: $rsp 56 +
STACK CFI 1046f $rbx: $rbx .cfa: $rsp 48 +
STACK CFI 10470 $rbp: $rbp .cfa: $rsp 40 +
STACK CFI 10472 $r12: $r12 .cfa: $rsp 32 +
STACK CFI 10474 $r13: $r13 .cfa: $rsp 24 +
STACK CFI 10476 $r14: $r14 .cfa: $rsp 16 +
STACK CFI 10478 $r15: $r15 .cfa: $rsp 8 +
STACK CFI 10480 $r12: .cfa -40 + ^ $r13: .cfa -32 + ^ $r14: .cfa -24 + ^ $r15: .cfa -16 + ^ $rbp: .cfa -48 + ^ $rbx: .cfa -56 + ^ .cfa: $rsp 80 +
STACK CFI INIT 10500 14d .cfa: $rsp 8 + .ra: .cfa -8 + ^
STACK CFI 1054a $r15: .cfa -16 + ^ .cfa: $rsp 16 +
STACK CFI 1054c $r14: .cfa -24 + ^ .cfa: $rsp 24 +
STACK CFI 1054e $r13: .cfa -32 + ^ .cfa: $rsp 32 +
STACK CFI 10550 $r12: .cfa -40 + ^ .cfa: $rsp 40 +
STACK CFI 10551 $rbp: .cfa -48 + ^ .cfa: $rsp 48 +
STACK CFI 10552 $rbx: .cfa -56 + ^ .cfa: $rsp 56 +
STACK CFI 1055c .cfa: $rsp 64 +
STACK CFI 10619 .cfa: $rsp 56 +
STACK CFI 1061a $rbx: $rbx .cfa: $rsp 48 +
STACK CFI 1061b $rbp: $rbp .cfa: $rsp 40 +
STACK CFI 1061d $r12: $r12 .cfa: $rsp 32 +
STACK CFI 1061f $r13: $r13 .cfa: $rsp 24 +
STACK CFI 10621 $r14: $r14 .cfa: $rsp 16 +
STACK CFI 10623 $r15: $r15 .cfa: $rsp 8 +
STACK CFI 10628 $r12: .cfa -40 + ^ $r13: .cfa -32 + ^ $r14: .cfa -24 + ^ $r15: .cfa -16 + ^ $rbp: .cfa -48 + ^ $rbx: .cfa -56 + ^ .cfa: $rsp 64 +
STACK CFI INIT 10060 f0 .cfa: $rsp 8 + .ra: .cfa -8 + ^
STACK CFI 10062 $r12: .cfa -16 + ^ .cfa: $rsp 16 +
STACK CFI 10063 $rbp: .cfa -24 + ^ .cfa: $rsp 24 +
STACK CFI 10067 $rbx: .cfa -32 + ^ .cfa: $rsp 32 +
STACK CFI 1006e .cfa: $rsp 64 +
STACK CFI 1011d .cfa: $rsp 32 +
STACK CFI 1011e .cfa: $rsp 24 +
STACK CFI 1011f .cfa: $rsp 16 +
STACK CFI 10121 .cfa: $rsp 8 +
STACK CFI 10128 .cfa: $rsp 64 +
STACK CFI INIT 10150 e8 .cfa: $rsp 8 + .ra: .cfa -8 + ^
STACK CFI 10152 $r12: .cfa -16 + ^ .cfa: $rsp 16 +
STACK CFI 10153 $rbp: .cfa -24 + ^ .cfa: $rsp 24 +
STACK CFI 10157 $rbx: .cfa -32 + ^ .cfa: $rsp 32 +
STACK CFI 1015e .cfa: $rsp 64 +
STACK CFI 1020b .cfa: $rsp 32 +
STACK CFI 1020c .cfa: $rsp 24 +
STACK CFI 1020d .cfa: $rsp 16 +
STACK CFI 1020f .cfa: $rsp 8 +
STACK CFI 10210 .cfa: $rsp 64 +
STACK CFI INIT 10650 1f .cfa: $rsp 8 + .ra: .cfa -8 + ^
STACK CFI 1065b .cfa: $rsp 16 +
STACK CFI 1066e .cfa: $rsp 8 +
STACK CFI INIT 10670 5 .cfa: $rsp 8 + .ra: .cfa -8 + ^
STACK CFI INIT 10680 461 .cfa: $rsp 8 + .ra: .cfa -8 + ^
STACK CFI 10682 $r15: .cfa -16 + ^ .cfa: $rsp 16 +
STACK CFI 10684 $r14: .cfa -24 + ^ .cfa: $rsp 24 +
STACK CFI 10686 $r13: .cfa -32 + ^ .cfa: $rsp 32 +
STACK CFI 10688 $r12: .cfa -40 + ^ .cfa: $rsp 40 +
STACK CFI 10689 $rbp: .cfa -48 + ^ .cfa: $rsp 48 +
STACK CFI 1068a $rbx: .cfa -56 + ^ .cfa: $rsp 56 +
STACK CFI 1068e .cfa: $rsp 96 +
STACK CFI 106d3 .cfa: $rsp 56 +
STACK CFI 106d6 .cfa: $rsp 48 +
STACK CFI 106d7 .cfa: $rsp 40 +
STACK CFI 106d9 .cfa: $rsp 32 +
STACK CFI 106db .cfa: $rsp 24 +
STACK CFI 106dd .cfa: $rsp 16 +
STACK CFI 106df .cfa: $rsp 8 +
STACK CFI 106e0 .cfa: $rsp 96 +
STACK CFI 1081e .cfa: $rsp 56 +
STACK CFI 1081f .cfa: $rsp 48 +
STACK CFI 10820 .cfa: $rsp 40 +
STACK CFI 10822 .cfa: $rsp 32 +
STACK CFI 10824 .cfa: $rsp 24 +
STACK CFI 10826 .cfa: $rsp 16 +
STACK CFI 10828 .cfa: $rsp 8 +
STACK CFI 10830 .cfa: $rsp 96 +
STACK CFI INIT 10dd0 250 .cfa: $rsp 8 + .ra: .cfa -8 + ^
STACK CFI 10dd2 $r15: .cfa -16 + ^ .cfa: $rsp 16 +
STACK CFI 10dd4 $r14: .cfa -24 + ^ .cfa: $rsp 24 +
STACK CFI 10dd6 $r13: .cfa -32 + ^ .cfa: $rsp 32 +
STACK CFI 10dd8 $r12: .cfa -40 + ^ .cfa: $rsp 40 +
STACK CFI 10ddc $rbp: .cfa -48 + ^ .cfa: $rsp 48 +
STACK CFI 10ddd $rbx: .cfa -56 + ^ .cfa: $rsp 56 +
STACK CFI 10de4 .cfa: $rsp 80 +
STACK CFI 10e90 .cfa: $rsp 56 +
STACK CFI 10e91 .cfa: $rsp 48 +
STACK CFI 10e92 .cfa: $rsp 40 +
STACK CFI 10e94 .cfa: $rsp 32 +
STACK CFI 10e96 .cfa: $rsp 24 +
STACK CFI 10e98 .cfa: $rsp 16 +
STACK CFI 10e9a .cfa: $rsp 8 +
STACK CFI 10ea0 .cfa: $rsp 80 +
STACK CFI INIT 10af0 2d7 .cfa: $rsp 8 + .ra: .cfa -8 + ^
STACK CFI 10af2 $r15: .cfa -16 + ^ .cfa: $rsp 16 +
STACK CFI 10af4 $r14: .cfa -24 + ^ .cfa: $rsp 24 +
STACK CFI 10af6 $r13: .cfa -32 + ^ .cfa: $rsp 32 +
STACK CFI 10af8 $r12: .cfa -40 + ^ .cfa: $rsp 40 +
STACK CFI 10af9 $rbp: .cfa -48 + ^ .cfa: $rsp 48 +
STACK CFI 10afa $rbx: .cfa -56 + ^ .cfa: $rsp 56 +
STACK CFI 10afe .cfa: $rsp 112 +
STACK CFI 10b50 .cfa: $rsp 56 +
STACK CFI 10b51 .cfa: $rsp 48 +
STACK CFI 10b52 .cfa: $rsp 40 +
STACK CFI 10b54 .cfa: $rsp 32 +
STACK CFI 10b56 .cfa: $rsp 24 +
STACK CFI 10b58 .cfa: $rsp 16 +
STACK CFI 10b5a .cfa: $rsp 8 +
STACK CFI 10b60 .cfa: $rsp 112 +
STACK CFI INIT 11020 135 .cfa: $rsp 8 + .ra: .cfa -8 + ^
STACK CFI 11022 $r15: .cfa -16 + ^ .cfa: $rsp 16 +
STACK CFI 11024 $r14: .cfa -24 + ^ .cfa: $rsp 24 +
STACK CFI 11026 $r13: .cfa -32 + ^ .cfa: $rsp 32 +
STACK CFI 11028 $r12: .cfa -40 + ^ .cfa: $rsp 40 +
STACK CFI 1102c $rbp: .cfa -48 + ^ .cfa: $rsp 48 +
STACK CFI 1102d $rbx: .cfa -56 + ^ .cfa: $rsp 56 +
STACK CFI 11031 .cfa: $rsp 96 +
STACK CFI 1111e .cfa: $rsp 56 +
STACK CFI 1111f .cfa: $rsp 48 +
STACK CFI 11120 .cfa: $rsp 40 +
STACK CFI 11122 .cfa: $rsp 32 +
STACK CFI 11124 .cfa: $rsp 24 +
STACK CFI 11126 .cfa: $rsp 16 +
STACK CFI 11128 .cfa: $rsp 8 +
STACK CFI 11129 .cfa: $rsp 96 +
STACK CFI INIT 11160 e2 .cfa: $rsp 8 + .ra: .cfa -8 + ^
STACK CFI 11162 $r13: .cfa -16 + ^ .cfa: $rsp 16 +
STACK CFI 11164 $r12: .cfa -24 + ^ .cfa: $rsp 24 +
STACK CFI 11165 $rbp: .cfa -32 + ^ .cfa: $rsp 32 +
STACK CFI 11166 $rbx: .cfa -40 + ^ .cfa: $rsp 40 +
STACK CFI 1116e .cfa: $rsp 64 +
STACK CFI 111d0 .cfa: $rsp 40 +
STACK CFI 111d1 .cfa: $rsp 32 +
STACK CFI 111d2 .cfa: $rsp 24 +
STACK CFI 111d4 .cfa: $rsp 16 +
STACK CFI 111d6 .cfa: $rsp 8 +
STACK CFI 111e0 .cfa: $rsp 64 +
STACK CFI INIT 11250 c7 .cfa: $rsp 8 + .ra: .cfa -8 + ^
STACK CFI 11251 $rbx: .cfa -16 + ^ .cfa: $rsp 16 +
STACK CFI 11258 .cfa: $rsp 48 +
STACK CFI 112e7 .cfa: $rsp 16 +
STACK CFI 112e8 .cfa: $rsp 8 +
STACK CFI 112f0 .cfa: $rsp 48 +
STACK CFI INIT 11320 49 .cfa: $rsp 8 + .ra: .cfa -8 + ^
STACK CFI 11321 $rbx: .cfa -16 + ^ .cfa: $rsp 16 +
STACK CFI 11328 .cfa: $rsp 32 +
STACK CFI 1135f .cfa: $rsp 16 +
STACK CFI 11363 .cfa: $rsp 8 +
STACK CFI 11364 .cfa: $rsp 32 +
STACK CFI INIT 11370 7e .cfa: $rsp 8 + .ra: .cfa -8 + ^
STACK CFI 113c4 .cfa: $rsp 24 +
STACK CFI 113cc .cfa: $rsp 32 +
STACK CFI 113e3 .cfa: $rsp 24 +
STACK CFI 113e4 .cfa: $rsp 16 +
STACK CFI 113ed .cfa: $rsp 8 +
STACK CFI INIT 113f0 4d4 .cfa: $rsp 8 + .ra: .cfa -8 + ^
STACK CFI 113f2 $r15: .cfa -16 + ^ .cfa: $rsp 16 +
STACK CFI 113f4 $r14: .cfa -24 + ^ .cfa: $rsp 24 +
STACK CFI 113f6 $r13: .cfa -32 + ^ .cfa: $rsp 32 +
STACK CFI 113f8 $r12: .cfa -40 + ^ .cfa: $rsp 40 +
STACK CFI 113f9 $rbp: .cfa -48 + ^ .cfa: $rsp 48 +
STACK CFI 113fa $rbx: .cfa -56 + ^ .cfa: $rsp 56 +
STACK CFI 11407 .cfa: $rsp 272 +
STACK CFI 1158b .cfa: $rsp 56 +
STACK CFI 1158c .cfa: $rsp 48 +
STACK CFI 1158d .cfa: $rsp 40 +
STACK CFI 1158f .cfa: $rsp 32 +
STACK CFI 11591 .cfa: $rsp 24 +
STACK CFI 11593 .cfa: $rsp 16 +
STACK CFI 11595 .cfa: $rsp 8 +
STACK CFI 115a0 .cfa: $rsp 272 +
STACK CFI INIT 118d0 7c .cfa: $rsp 8 + .ra: .cfa -8 + ^
STACK CFI 118d1 $rbp: .cfa -16 + ^ .cfa: $rsp 16 +
STACK CFI 118d2 $rbx: .cfa -24 + ^ .cfa: $rsp 24 +
STACK CFI 118db .cfa: $rsp 64 +
STACK CFI 1192a .cfa: $rsp 24 +
STACK CFI 1192b .cfa: $rsp 16 +
STACK CFI 1192c .cfa: $rsp 8 +
STACK CFI 11930 .cfa: $rsp 64 +
STACK CFI INIT 11a90 21 .cfa: $rsp 8 + .ra: .cfa -8 + ^
STACK CFI 11a94 .cfa: $rsp 16 +
STACK CFI 11aa6 .cfa: $rsp 8 +
STACK CFI INIT 11950 bb .cfa: $rsp 8 + .ra: .cfa -8 + ^
STACK CFI 11952 $r12: .cfa -16 + ^ .cfa: $rsp 16 +
STACK CFI 11953 $rbp: .cfa -24 + ^ .cfa: $rsp 24 +
STACK CFI 11957 $rbx: .cfa -32 + ^ .cfa: $rsp 32 +
STACK CFI 119cb .cfa: $rsp 24 +
STACK CFI 119cc .cfa: $rsp 16 +
STACK CFI 119ce .cfa: $rsp 8 +
STACK CFI 119d0 .cfa: $rsp 32 +
STACK CFI INIT 11a10 75 .cfa: $rsp 8 + .ra: .cfa -8 + ^
STACK CFI 11a14 $rbx: .cfa -16 + ^ .cfa: $rsp 16 +
STACK CFI 11a33 .cfa: $rsp 24 +
STACK CFI 11a37 .cfa: $rsp 32 +
STACK CFI 11a3c .cfa: $rsp 40 +
STACK CFI 11a41 .cfa: $rsp 48 +
STACK CFI 11a52 .cfa: $rsp 16 +
STACK CFI 11a65 .cfa: $rsp 8 +
STACK CFI 11a66 .cfa: $rsp 16 +
STACK CFI INIT 11ac0 1e .cfa: $rsp 8 + .ra: .cfa -8 + ^
STACK CFI INIT 11ae0 46 .cfa: $rsp 8 + .ra: .cfa -8 + ^
STACK CFI INIT 11b30 56 .cfa: $rsp 8 + .ra: .cfa -8 + ^
STACK CFI INIT 11b90 4c .cfa: $rsp 8 + .ra: .cfa -8 + ^
STACK CFI INIT 11be0 39 .cfa: $rsp 8 + .ra: .cfa -8 + ^
STACK CFI INIT 11c20 3c .cfa: $rsp 8 + .ra: .cfa -8 + ^
STACK CFI INIT 11c60 34 .cfa: $rsp 8 + .ra: .cfa -8 + ^
STACK CFI INIT 11ca0 26 .cfa: $rsp 8 + .ra: .cfa -8 + ^
STACK CFI INIT 11cd0 34 .cfa: $rsp 8 + .ra: .cfa -8 + ^
STACK CFI INIT 11d10 7c .cfa: $rsp 8 + .ra: .cfa -8 + ^
STACK CFI INIT 11d90 3a .cfa: $rsp 8 + .ra: .cfa -8 + ^
STACK CFI INIT 11dd0 1f .cfa: $rsp 8 + .ra: .cfa -8 + ^
STACK CFI INIT 11df0 38 .cfa: $rsp 8 + .ra: .cfa -8 + ^
STACK CFI INIT 11e30 3b .cfa: $rsp 8 + .ra: .cfa -8 + ^
STACK CFI 11e36 $rbx: .cfa -16 + ^ .cfa: $rsp 16 +
STACK CFI 11e53 $rbx: $rbx .cfa: $rsp 8 +
STACK CFI 11e58 $rbx: .cfa -16 + ^ .cfa: $rsp 16 +
STACK CFI 11e67 $rbx: $rbx .cfa: $rsp 8 +
STACK CFI INIT 11e70 6c .cfa: $rsp 8 + .ra: .cfa -8 + ^
STACK CFI 11e74 .cfa: $rsp 32 +
STACK CFI 11ec8 .cfa: $rsp 8 +
STACK CFI 11ed0 .cfa: $rsp 32 +
STACK CFI INIT 11ee0 10 .cfa: $rsp 8 + .ra: .cfa -8 + ^
STACK CFI INIT 11ef0 4b .cfa: $rsp 8 + .ra: .cfa -8 + ^
STACK CFI 11ef1 $rbp: .cfa -16 + ^ .cfa: $rsp 16 +
STACK CFI 11ef2 $rbx: .cfa -24 + ^ .cfa: $rsp 24 +
STACK CFI 11ef9 .cfa: $rsp 32 +
STACK CFI 11f2c .cfa: $rsp 24 +
STACK CFI 11f2d .cfa: $rsp 16 +
STACK CFI 11f2e .cfa: $rsp 8 +
STACK CFI 11f30 .cfa: $rsp 32 +
STACK CFI INIT 11f40 5 .cfa: $rsp 8 + .ra: .cfa -8 + ^
STACK CFI INIT 11f50 1af .cfa: $rsp 8 + .ra: .cfa -8 + ^
STACK CFI 11f52 $r15: .cfa -16 + ^ .cfa: $rsp 16 +
STACK CFI 11f54 $r14: .cfa -24 + ^ .cfa: $rsp 24 +
STACK CFI 11f56 $r13: .cfa -32 + ^ .cfa: $rsp 32 +
STACK CFI 11f58 $r12: .cfa -40 + ^ .cfa: $rsp 40 +
STACK CFI 11f5c $rbp: .cfa -48 + ^ .cfa: $rsp 48 +
STACK CFI 11f5d $rbx: .cfa -56 + ^ .cfa: $rsp 56 +
STACK CFI 11f6c .cfa: $rsp 224 +
STACK CFI 1205d .cfa: $rsp 56 +
STACK CFI 1205e .cfa: $rsp 48 +
STACK CFI 1205f .cfa: $rsp 40 +
STACK CFI 12061 .cfa: $rsp 32 +
STACK CFI 12063 .cfa: $rsp 24 +
STACK CFI 12065 .cfa: $rsp 16 +
STACK CFI 12067 .cfa: $rsp 8 +
STACK CFI 12070 .cfa: $rsp 224 +
STACK CFI INIT 12100 14 .cfa: $rsp 8 + .ra: .cfa -8 + ^
STACK CFI INIT 12120 40 .cfa: $rsp 8 + .ra: .cfa -8 + ^
STACK CFI 12126 $rbx: .cfa -16 + ^ .cfa: $rsp 16 +
STACK CFI 12141 .cfa: $rsp 8 +
STACK CFI 12148 .cfa: $rsp 16 +
STACK CFI 1215f .cfa: $rsp 8 +
STACK CFI INIT 12160 2 .cfa: $rsp 8 + .ra: .cfa -8 + ^
STACK CFI INIT 12170 213 .cfa: $rsp 8 + .ra: .cfa -8 + ^
STACK CFI 12172 $r15: .cfa -16 + ^ .cfa: $rsp 16 +
STACK CFI 12174 $r14: .cfa -24 + ^ .cfa: $rsp 24 +
STACK CFI 1217b $r13: .cfa -32 + ^ .cfa: $rsp 32 +
STACK CFI 1217d $r12: .cfa -40 + ^ .cfa: $rsp 40 +
STACK CFI 1217e $rbp: .cfa -48 + ^ .cfa: $rsp 48 +
STACK CFI 1217f $rbx: .cfa -56 + ^ .cfa: $rsp 56 +
STACK CFI 12189 .cfa: $rsp 208 +
STACK CFI 12317 .cfa: $rsp 56 +
STACK CFI 12318 .cfa: $rsp 48 +
STACK CFI 12319 .cfa: $rsp 40 +
STACK CFI 1231b .cfa: $rsp 32 +
STACK CFI 1231d .cfa: $rsp 24 +
STACK CFI 1231f .cfa: $rsp 16 +
STACK CFI 12321 .cfa: $rsp 8 +
STACK CFI 12328 .cfa: $rsp 208 +
STACK CFI INIT 12390 5 .cfa: $rsp 8 + .ra: .cfa -8 + ^
STACK CFI INIT 123a0 23 .cfa: $rsp 8 + .ra: .cfa -8 + ^
STACK CFI 123a5 $rbx: .cfa -16 + ^ .cfa: $rsp 16 +
STACK CFI 123bf $rbx: $rbx .cfa: $rsp 8 +
STACK CFI INIT 123d0 8 .cfa: $rsp 8 + .ra: .cfa -8 + ^
STACK CFI INIT 123e0 2fc .cfa: $rsp 8 + .ra: .cfa -8 + ^
STACK CFI INIT 126e0 44 .cfa: $rsp 8 + .ra: .cfa -8 + ^
STACK CFI 1270c .cfa: $rsp 16 +
STACK CFI INIT 12730 47 .cfa: $rsp 8 + .ra: .cfa -8 + ^
STACK CFI 1275f .cfa: $rsp 16 +
STACK CFI INIT 12780 8 .cfa: $rsp 8 + .ra: .cfa -8 + ^
STACK CFI INIT 12790 8 .cfa: $rsp 8 + .ra: .cfa -8 + ^
STACK CFI INIT 127a0 25c .cfa: $rsp 8 + .ra: .cfa -8 + ^
STACK CFI INIT 12a00 c7 .cfa: $rsp 8 + .ra: .cfa -8 + ^
STACK CFI INIT 12ad0 fd .cfa: $rsp 8 + .ra: .cfa -8 + ^
STACK CFI 12ad1 $rbp: .cfa -16 + ^ .cfa: $rsp 16 +
STACK CFI 12ad2 $rbx: .cfa -24 + ^ .cfa: $rsp 24 +
STACK CFI 12b59 .cfa: $rsp 16 +
STACK CFI 12b5a .cfa: $rsp 8 +
STACK CFI 12b60 .cfa: $rsp 24 +
STACK CFI 12bba .cfa: $rsp 16 +
STACK CFI 12bbb .cfa: $rsp 8 +
STACK CFI 12bbc .cfa: $rsp 24 +
STACK CFI INIT 12bd0 118 .cfa: $rsp 8 + .ra: .cfa -8 + ^
STACK CFI 12bd5 $r14: .cfa -16 + ^ .cfa: $rsp 16 +
STACK CFI 12bd7 $r13: .cfa -24 + ^ .cfa: $rsp 24 +
STACK CFI 12bdc $r12: .cfa -32 + ^ .cfa: $rsp 32 +
STACK CFI 12bdd $rbp: .cfa -40 + ^ .cfa: $rsp 40 +
STACK CFI 12be1 $rbx: .cfa -48 + ^ .cfa: $rsp 48 +
STACK CFI 12c76 .cfa: $rsp 40 +
STACK CFI 12c82 .cfa: $rsp 32 +
STACK CFI 12c84 .cfa: $rsp 24 +
STACK CFI 12c86 .cfa: $rsp 16 +
STACK CFI 12c88 .cfa: $rsp 8 +
STACK CFI 12c90 .cfa: $rsp 48 +
STACK CFI 12caf .cfa: $rsp 40 +
STACK CFI 12cb8 .cfa: $rsp 32 +
STACK CFI 12cba .cfa: $rsp 24 +
STACK CFI 12cbc .cfa: $rsp 16 +
STACK CFI 12cbe .cfa: $rsp 8 +
STACK CFI 12cc0 .cfa: $rsp 48 +
STACK CFI 12cc1 .cfa: $rsp 40 +
STACK CFI 12ccd .cfa: $rsp 32 +
STACK CFI 12ccf .cfa: $rsp 24 +
STACK CFI 12cd1 .cfa: $rsp 16 +
STACK CFI 12cd3 .cfa: $rsp 8 +
STACK CFI 12cd4 .cfa: $rsp 48 +
STACK CFI 12cd5 .cfa: $rsp 40 +
STACK CFI 12ce1 .cfa: $rsp 32 +
STACK CFI 12ce3 .cfa: $rsp 24 +
STACK CFI 12ce5 .cfa: $rsp 16 +
STACK CFI 12ce7 .cfa: $rsp 8 +
STACK CFI INIT 12cf0 1ff .cfa: $rsp 8 + .ra: .cfa -8 + ^
STACK CFI 12cf2 $r13: .cfa -16 + ^ .cfa: $rsp 16 +
STACK CFI 12cf4 $r12: .cfa -24 + ^ .cfa: $rsp 24 +
STACK CFI 12cf5 $rbp: .cfa -32 + ^ .cfa: $rsp 32 +
STACK CFI 12cf6 $rbx: .cfa -40 + ^ .cfa: $rsp 40 +
STACK CFI 12e12 .cfa: $rsp 32 +
STACK CFI 12e13 .cfa: $rsp 24 +
STACK CFI 12e18 .cfa: $rsp 16 +
STACK CFI 12e1a .cfa: $rsp 8 +
STACK CFI 12e20 .cfa: $rsp 40 +
STACK CFI 12e35 .cfa: $rsp 32 +
STACK CFI 12e36 .cfa: $rsp 24 +
STACK CFI 12e38 .cfa: $rsp 16 +
STACK CFI 12e3a .cfa: $rsp 8 +
STACK CFI 12e40 .cfa: $rsp 40 +
STACK CFI 12e65 .cfa: $rsp 32 +
STACK CFI 12e66 .cfa: $rsp 24 +
STACK CFI 12e68 .cfa: $rsp 16 +
STACK CFI 12e6a .cfa: $rsp 8 +
STACK CFI 12e70 .cfa: $rsp 40 +
STACK CFI 12e99 .cfa: $rsp 32 +
STACK CFI 12e9a .cfa: $rsp 24 +
STACK CFI 12e9c .cfa: $rsp 16 +
STACK CFI 12e9e .cfa: $rsp 8 +
STACK CFI 12e9f .cfa: $rsp 40 +
STACK CFI INIT 12ef0 2b .cfa: $rsp 8 + .ra: .cfa -8 + ^
STACK CFI INIT 12f20 26f .cfa: $rsp 8 + .ra: .cfa -8 + ^
STACK CFI 12f22 $r15: .cfa -16 + ^ .cfa: $rsp 16 +
STACK CFI 12f24 $r14: .cfa -24 + ^ .cfa: $rsp 24 +
STACK CFI 12f26 $r13: .cfa -32 + ^ .cfa: $rsp 32 +
STACK CFI 12f28 $r12: .cfa -40 + ^ .cfa: $rsp 40 +
STACK CFI 12f29 $rbp: .cfa -48 + ^ .cfa: $rsp 48 +
STACK CFI 12f2a $rbx: .cfa -56 + ^ .cfa: $rsp 56 +
STACK CFI 12f2e .cfa: $rsp 80 +
STACK CFI 1307f .cfa: $rsp 56 +
STACK CFI 13080 .cfa: $rsp 48 +
STACK CFI 13081 .cfa: $rsp 40 +
STACK CFI 13083 .cfa: $rsp 32 +
STACK CFI 13085 .cfa: $rsp 24 +
STACK CFI 13087 .cfa: $rsp 16 +
STACK CFI 13089 .cfa: $rsp 8 +
STACK CFI 13090 .cfa: $rsp 80 +
STACK CFI INIT 13190 19a .cfa: $rsp 8 + .ra: .cfa -8 + ^
STACK CFI 13192 $r13: .cfa -16 + ^ .cfa: $rsp 16 +
STACK CFI 13194 $r12: .cfa -24 + ^ .cfa: $rsp 24 +
STACK CFI 13197 $rbp: .cfa -32 + ^ .cfa: $rsp 32 +
STACK CFI 13198 $rbx: .cfa -40 + ^ .cfa: $rsp 40 +
STACK CFI 1327d .cfa: $rsp 32 +
STACK CFI 1327e .cfa: $rsp 24 +
STACK CFI 13280 .cfa: $rsp 16 +
STACK CFI 13282 .cfa: $rsp 8 +
STACK CFI 13288 .cfa: $rsp 40 +
STACK CFI 1330c .cfa: $rsp 32 +
STACK CFI 1330d .cfa: $rsp 24 +
STACK CFI 1330f .cfa: $rsp 16 +
STACK CFI 13311 .cfa: $rsp 8 +
STACK CFI 13312 .cfa: $rsp 40 +
STACK CFI INIT 13330 287 .cfa: $rsp 8 + .ra: .cfa -8 + ^
STACK CFI 13332 $r15: .cfa -16 + ^ .cfa: $rsp 16 +
STACK CFI 13334 $r14: .cfa -24 + ^ .cfa: $rsp 24 +
STACK CFI 13336 $r13: .cfa -32 + ^ .cfa: $rsp 32 +
STACK CFI 13338 $r12: .cfa -40 + ^ .cfa: $rsp 40 +
STACK CFI 13339 $rbp: .cfa -48 + ^ .cfa: $rsp 48 +
STACK CFI 1333a $rbx: .cfa -56 + ^ .cfa: $rsp 56 +
STACK CFI 1333e .cfa: $rsp 88 +
STACK CFI 134c5 .cfa: $rsp 56 +
STACK CFI 134c6 .cfa: $rsp 48 +
STACK CFI 134c7 .cfa: $rsp 40 +
STACK CFI 134c9 .cfa: $rsp 32 +
STACK CFI 134cb .cfa: $rsp 24 +
STACK CFI 134cd .cfa: $rsp 16 +
STACK CFI 134cf .cfa: $rsp 8 +
STACK CFI 134d0 .cfa: $rsp 88 +
STACK CFI INIT 135c0 65 .cfa: $rsp 8 + .ra: .cfa -8 + ^
STACK CFI 135c2 $r15: .cfa -16 + ^ .cfa: $rsp 16 +
STACK CFI 135c4 $r14: .cfa -24 + ^ .cfa: $rsp 24 +
STACK CFI 135c9 $r13: .cfa -32 + ^ .cfa: $rsp 32 +
STACK CFI 135cb $r12: .cfa -40 + ^ .cfa: $rsp 40 +
STACK CFI 135d3 $rbp: .cfa -48 + ^ .cfa: $rsp 48 +
STACK CFI 135db $rbx: .cfa -56 + ^ .cfa: $rsp 56 +
STACK CFI 135e8 .cfa: $rsp 64 +
STACK CFI 1361a .cfa: $rsp 56 +
STACK CFI 1361b .cfa: $rsp 48 +
STACK CFI 1361c .cfa: $rsp 40 +
STACK CFI 1361e .cfa: $rsp 32 +
STACK CFI 13620 .cfa: $rsp 24 +
STACK CFI 13622 .cfa: $rsp 16 +
STACK CFI 13624 .cfa: $rsp 8 +
STACK CFI INIT 13630 2 .cfa: $rsp 8 + .ra: .cfa -8 + ^
